
aes:     file format elf64-x86-64


Disassembly of section .init:

00000000004005a0 <_init>:
  4005a0:	48 83 ec 08          	sub    $0x8,%rsp
  4005a4:	48 8b 05 4d 8a 20 00 	mov    0x208a4d(%rip),%rax        # 608ff8 <__gmon_start__>
  4005ab:	48 85 c0             	test   %rax,%rax
  4005ae:	74 02                	je     4005b2 <_init+0x12>
  4005b0:	ff d0                	callq  *%rax
  4005b2:	48 83 c4 08          	add    $0x8,%rsp
  4005b6:	c3                   	retq   

Disassembly of section .plt:

00000000004005c0 <.plt>:
  4005c0:	ff 35 42 8a 20 00    	pushq  0x208a42(%rip)        # 609008 <_GLOBAL_OFFSET_TABLE_+0x8>
  4005c6:	ff 25 44 8a 20 00    	jmpq   *0x208a44(%rip)        # 609010 <_GLOBAL_OFFSET_TABLE_+0x10>
  4005cc:	0f 1f 40 00          	nopl   0x0(%rax)

00000000004005d0 <putchar@plt>:
  4005d0:	ff 25 42 8a 20 00    	jmpq   *0x208a42(%rip)        # 609018 <putchar@GLIBC_2.2.5>
  4005d6:	68 00 00 00 00       	pushq  $0x0
  4005db:	e9 e0 ff ff ff       	jmpq   4005c0 <.plt>

00000000004005e0 <strlen@plt>:
  4005e0:	ff 25 3a 8a 20 00    	jmpq   *0x208a3a(%rip)        # 609020 <strlen@GLIBC_2.2.5>
  4005e6:	68 01 00 00 00       	pushq  $0x1
  4005eb:	e9 d0 ff ff ff       	jmpq   4005c0 <.plt>

00000000004005f0 <mmap@plt>:
  4005f0:	ff 25 32 8a 20 00    	jmpq   *0x208a32(%rip)        # 609028 <mmap@GLIBC_2.2.5>
  4005f6:	68 02 00 00 00       	pushq  $0x2
  4005fb:	e9 c0 ff ff ff       	jmpq   4005c0 <.plt>

0000000000400600 <printf@plt>:
  400600:	ff 25 2a 8a 20 00    	jmpq   *0x208a2a(%rip)        # 609030 <printf@GLIBC_2.2.5>
  400606:	68 03 00 00 00       	pushq  $0x3
  40060b:	e9 b0 ff ff ff       	jmpq   4005c0 <.plt>

0000000000400610 <__assert_fail@plt>:
  400610:	ff 25 22 8a 20 00    	jmpq   *0x208a22(%rip)        # 609038 <__assert_fail@GLIBC_2.2.5>
  400616:	68 04 00 00 00       	pushq  $0x4
  40061b:	e9 a0 ff ff ff       	jmpq   4005c0 <.plt>

0000000000400620 <memset@plt>:
  400620:	ff 25 1a 8a 20 00    	jmpq   *0x208a1a(%rip)        # 609040 <memset@GLIBC_2.2.5>
  400626:	68 05 00 00 00       	pushq  $0x5
  40062b:	e9 90 ff ff ff       	jmpq   4005c0 <.plt>

0000000000400630 <memcpy@plt>:
  400630:	ff 25 12 8a 20 00    	jmpq   *0x208a12(%rip)        # 609048 <memcpy@GLIBC_2.14>
  400636:	68 06 00 00 00       	pushq  $0x6
  40063b:	e9 80 ff ff ff       	jmpq   4005c0 <.plt>

0000000000400640 <__isoc99_sscanf@plt>:
  400640:	ff 25 0a 8a 20 00    	jmpq   *0x208a0a(%rip)        # 609050 <__isoc99_sscanf@GLIBC_2.7>
  400646:	68 07 00 00 00       	pushq  $0x7
  40064b:	e9 70 ff ff ff       	jmpq   4005c0 <.plt>

Disassembly of section .text:

0000000000400680 <_start>:
  400680:	31 ed                	xor    %ebp,%ebp
  400682:	49 89 d1             	mov    %rdx,%r9
  400685:	5e                   	pop    %rsi
  400686:	48 89 e2             	mov    %rsp,%rdx
  400689:	48 83 e4 f0          	and    $0xfffffffffffffff0,%rsp
  40068d:	50                   	push   %rax
  40068e:	54                   	push   %rsp
  40068f:	49 c7 c0 10 75 40 00 	mov    $0x407510,%r8
  400696:	48 c7 c1 a0 74 40 00 	mov    $0x4074a0,%rcx
  40069d:	48 c7 c7 70 07 40 00 	mov    $0x400770,%rdi
  4006a4:	ff 15 46 89 20 00    	callq  *0x208946(%rip)        # 608ff0 <__libc_start_main@GLIBC_2.2.5>
  4006aa:	f4                   	hlt    
  4006ab:	0f 1f 44 00 00       	nopl   0x0(%rax,%rax,1)

00000000004006b0 <_dl_relocate_static_pie>:
  4006b0:	f3 c3                	repz retq 
  4006b2:	66 2e 0f 1f 84 00 00 	nopw   %cs:0x0(%rax,%rax,1)
  4006b9:	00 00 00 
  4006bc:	0f 1f 40 00          	nopl   0x0(%rax)

00000000004006c0 <deregister_tm_clones>:
  4006c0:	55                   	push   %rbp
  4006c1:	b8 68 90 60 00       	mov    $0x609068,%eax
  4006c6:	48 3d 68 90 60 00    	cmp    $0x609068,%rax
  4006cc:	48 89 e5             	mov    %rsp,%rbp
  4006cf:	74 17                	je     4006e8 <deregister_tm_clones+0x28>
  4006d1:	b8 00 00 00 00       	mov    $0x0,%eax
  4006d6:	48 85 c0             	test   %rax,%rax
  4006d9:	74 0d                	je     4006e8 <deregister_tm_clones+0x28>
  4006db:	5d                   	pop    %rbp
  4006dc:	bf 68 90 60 00       	mov    $0x609068,%edi
  4006e1:	ff e0                	jmpq   *%rax
  4006e3:	0f 1f 44 00 00       	nopl   0x0(%rax,%rax,1)
  4006e8:	5d                   	pop    %rbp
  4006e9:	c3                   	retq   
  4006ea:	66 0f 1f 44 00 00    	nopw   0x0(%rax,%rax,1)

00000000004006f0 <register_tm_clones>:
  4006f0:	be 68 90 60 00       	mov    $0x609068,%esi
  4006f5:	55                   	push   %rbp
  4006f6:	48 81 ee 68 90 60 00 	sub    $0x609068,%rsi
  4006fd:	48 89 e5             	mov    %rsp,%rbp
  400700:	48 c1 fe 03          	sar    $0x3,%rsi
  400704:	48 89 f0             	mov    %rsi,%rax
  400707:	48 c1 e8 3f          	shr    $0x3f,%rax
  40070b:	48 01 c6             	add    %rax,%rsi
  40070e:	48 d1 fe             	sar    %rsi
  400711:	74 15                	je     400728 <register_tm_clones+0x38>
  400713:	b8 00 00 00 00       	mov    $0x0,%eax
  400718:	48 85 c0             	test   %rax,%rax
  40071b:	74 0b                	je     400728 <register_tm_clones+0x38>
  40071d:	5d                   	pop    %rbp
  40071e:	bf 68 90 60 00       	mov    $0x609068,%edi
  400723:	ff e0                	jmpq   *%rax
  400725:	0f 1f 00             	nopl   (%rax)
  400728:	5d                   	pop    %rbp
  400729:	c3                   	retq   
  40072a:	66 0f 1f 44 00 00    	nopw   0x0(%rax,%rax,1)

0000000000400730 <__do_global_dtors_aux>:
  400730:	80 3d 39 89 20 00 00 	cmpb   $0x0,0x208939(%rip)        # 609070 <completed.7698>
  400737:	75 17                	jne    400750 <__do_global_dtors_aux+0x20>
  400739:	55                   	push   %rbp
  40073a:	48 89 e5             	mov    %rsp,%rbp
  40073d:	e8 7e ff ff ff       	callq  4006c0 <deregister_tm_clones>
  400742:	c6 05 27 89 20 00 01 	movb   $0x1,0x208927(%rip)        # 609070 <completed.7698>
  400749:	5d                   	pop    %rbp
  40074a:	c3                   	retq   
  40074b:	0f 1f 44 00 00       	nopl   0x0(%rax,%rax,1)
  400750:	f3 c3                	repz retq 
  400752:	0f 1f 40 00          	nopl   0x0(%rax)
  400756:	66 2e 0f 1f 84 00 00 	nopw   %cs:0x0(%rax,%rax,1)
  40075d:	00 00 00 

0000000000400760 <frame_dummy>:
  400760:	55                   	push   %rbp
  400761:	48 89 e5             	mov    %rsp,%rbp
  400764:	5d                   	pop    %rbp
  400765:	eb 89                	jmp    4006f0 <register_tm_clones>
  400767:	66 0f 1f 84 00 00 00 	nopw   0x0(%rax,%rax,1)
  40076e:	00 00 

0000000000400770 <main>:
  400770:	55                   	push   %rbp
  400771:	41 57                	push   %r15
  400773:	41 56                	push   %r14
  400775:	41 55                	push   %r13
  400777:	41 54                	push   %r12
  400779:	53                   	push   %rbx
  40077a:	48 81 ec d8 08 00 00 	sub    $0x8d8,%rsp
  400781:	be 00 00 40 06       	mov    $0x6400000,%esi
  400786:	bf 00 00 00 00       	mov    $0x0,%edi
  40078b:	ba 07 00 00 00       	mov    $0x7,%edx
  400790:	b9 21 00 00 00       	mov    $0x21,%ecx
  400795:	45 31 c0             	xor    %r8d,%r8d
  400798:	45 31 c9             	xor    %r9d,%r9d
  40079b:	e8 50 fe ff ff       	callq  4005f0 <mmap@plt>
  4007a0:	48 89 44 24 30       	mov    %rax,0x30(%rsp)
  4007a5:	48 8b 7c 24 30       	mov    0x30(%rsp),%rdi
  4007aa:	ba 00 00 40 06       	mov    $0x6400000,%edx
  4007af:	31 f6                	xor    %esi,%esi
  4007b1:	e8 6a fe ff ff       	callq  400620 <memset@plt>
  4007b6:	b8 00 10 00 00       	mov    $0x1000,%eax
  4007bb:	48 03 44 24 30       	add    0x30(%rsp),%rax
  4007c0:	48 25 00 f0 ff ff    	and    $0xfffffffffffff000,%rax
  4007c6:	48 89 44 24 30       	mov    %rax,0x30(%rsp)
  4007cb:	48 8b 44 24 30       	mov    0x30(%rsp),%rax
  4007d0:	48 89 44 24 40       	mov    %rax,0x40(%rsp)
  4007d5:	48 8d a8 10 10 00 00 	lea    0x1010(%rax),%rbp
  4007dc:	48 8b 44 24 30       	mov    0x30(%rsp),%rax
  4007e1:	48 89 44 24 38       	mov    %rax,0x38(%rsp)
  4007e6:	4c 8d b8 10 20 00 00 	lea    0x2010(%rax),%r15
  4007ed:	b8 00 30 00 00       	mov    $0x3000,%eax
  4007f2:	48 03 44 24 30       	add    0x30(%rsp),%rax
  4007f7:	48 89 84 24 80 00 00 	mov    %rax,0x80(%rsp)
  4007fe:	00 
  4007ff:	b8 00 40 10 00       	mov    $0x104000,%eax
  400804:	48 03 44 24 30       	add    0x30(%rsp),%rax
  400809:	48 89 44 24 48       	mov    %rax,0x48(%rsp)
  40080e:	48 c7 84 24 88 00 00 	movq   $0x100000,0x88(%rsp)
  400815:	00 00 00 10 00 
  40081a:	48 8d 9c 24 d0 00 00 	lea    0xd0(%rsp),%rbx
  400821:	00 
  400822:	bf 50 75 40 00       	mov    $0x407550,%edi
  400827:	be 83 76 40 00       	mov    $0x407683,%esi
  40082c:	48 89 da             	mov    %rbx,%rdx
  40082f:	31 c0                	xor    %eax,%eax
  400831:	e8 0a fe ff ff       	callq  400640 <__isoc99_sscanf@plt>
  400836:	8a 84 24 d0 00 00 00 	mov    0xd0(%rsp),%al
  40083d:	88 04 24             	mov    %al,(%rsp)
  400840:	bf 52 75 40 00       	mov    $0x407552,%edi
  400845:	be 83 76 40 00       	mov    $0x407683,%esi
  40084a:	48 89 da             	mov    %rbx,%rdx
  40084d:	31 c0                	xor    %eax,%eax
  40084f:	e8 ec fd ff ff       	callq  400640 <__isoc99_sscanf@plt>
  400854:	8a 84 24 d0 00 00 00 	mov    0xd0(%rsp),%al
  40085b:	88 44 24 01          	mov    %al,0x1(%rsp)
  40085f:	bf 54 75 40 00       	mov    $0x407554,%edi
  400864:	be 83 76 40 00       	mov    $0x407683,%esi
  400869:	48 89 da             	mov    %rbx,%rdx
  40086c:	31 c0                	xor    %eax,%eax
  40086e:	e8 cd fd ff ff       	callq  400640 <__isoc99_sscanf@plt>
  400873:	8a 84 24 d0 00 00 00 	mov    0xd0(%rsp),%al
  40087a:	88 44 24 02          	mov    %al,0x2(%rsp)
  40087e:	bf 56 75 40 00       	mov    $0x407556,%edi
  400883:	be 83 76 40 00       	mov    $0x407683,%esi
  400888:	48 89 da             	mov    %rbx,%rdx
  40088b:	31 c0                	xor    %eax,%eax
  40088d:	e8 ae fd ff ff       	callq  400640 <__isoc99_sscanf@plt>
  400892:	8a 84 24 d0 00 00 00 	mov    0xd0(%rsp),%al
  400899:	88 44 24 03          	mov    %al,0x3(%rsp)
  40089d:	bf 58 75 40 00       	mov    $0x407558,%edi
  4008a2:	be 83 76 40 00       	mov    $0x407683,%esi
  4008a7:	48 89 da             	mov    %rbx,%rdx
  4008aa:	31 c0                	xor    %eax,%eax
  4008ac:	e8 8f fd ff ff       	callq  400640 <__isoc99_sscanf@plt>
  4008b1:	8a 84 24 d0 00 00 00 	mov    0xd0(%rsp),%al
  4008b8:	88 44 24 04          	mov    %al,0x4(%rsp)
  4008bc:	bf 5a 75 40 00       	mov    $0x40755a,%edi
  4008c1:	be 83 76 40 00       	mov    $0x407683,%esi
  4008c6:	48 89 da             	mov    %rbx,%rdx
  4008c9:	31 c0                	xor    %eax,%eax
  4008cb:	e8 70 fd ff ff       	callq  400640 <__isoc99_sscanf@plt>
  4008d0:	8a 84 24 d0 00 00 00 	mov    0xd0(%rsp),%al
  4008d7:	88 44 24 05          	mov    %al,0x5(%rsp)
  4008db:	bf 5c 75 40 00       	mov    $0x40755c,%edi
  4008e0:	be 83 76 40 00       	mov    $0x407683,%esi
  4008e5:	48 89 da             	mov    %rbx,%rdx
  4008e8:	31 c0                	xor    %eax,%eax
  4008ea:	e8 51 fd ff ff       	callq  400640 <__isoc99_sscanf@plt>
  4008ef:	8a 84 24 d0 00 00 00 	mov    0xd0(%rsp),%al
  4008f6:	88 44 24 06          	mov    %al,0x6(%rsp)
  4008fa:	bf 5e 75 40 00       	mov    $0x40755e,%edi
  4008ff:	be 83 76 40 00       	mov    $0x407683,%esi
  400904:	48 89 da             	mov    %rbx,%rdx
  400907:	31 c0                	xor    %eax,%eax
  400909:	e8 32 fd ff ff       	callq  400640 <__isoc99_sscanf@plt>
  40090e:	8a 84 24 d0 00 00 00 	mov    0xd0(%rsp),%al
  400915:	88 44 24 07          	mov    %al,0x7(%rsp)
  400919:	bf 60 75 40 00       	mov    $0x407560,%edi
  40091e:	be 83 76 40 00       	mov    $0x407683,%esi
  400923:	48 89 da             	mov    %rbx,%rdx
  400926:	31 c0                	xor    %eax,%eax
  400928:	e8 13 fd ff ff       	callq  400640 <__isoc99_sscanf@plt>
  40092d:	8a 84 24 d0 00 00 00 	mov    0xd0(%rsp),%al
  400934:	88 44 24 08          	mov    %al,0x8(%rsp)
  400938:	bf 62 75 40 00       	mov    $0x407562,%edi
  40093d:	be 83 76 40 00       	mov    $0x407683,%esi
  400942:	48 89 da             	mov    %rbx,%rdx
  400945:	31 c0                	xor    %eax,%eax
  400947:	e8 f4 fc ff ff       	callq  400640 <__isoc99_sscanf@plt>
  40094c:	8a 84 24 d0 00 00 00 	mov    0xd0(%rsp),%al
  400953:	88 44 24 09          	mov    %al,0x9(%rsp)
  400957:	bf 64 75 40 00       	mov    $0x407564,%edi
  40095c:	be 83 76 40 00       	mov    $0x407683,%esi
  400961:	48 89 da             	mov    %rbx,%rdx
  400964:	31 c0                	xor    %eax,%eax
  400966:	e8 d5 fc ff ff       	callq  400640 <__isoc99_sscanf@plt>
  40096b:	8a 84 24 d0 00 00 00 	mov    0xd0(%rsp),%al
  400972:	88 44 24 0a          	mov    %al,0xa(%rsp)
  400976:	bf 66 75 40 00       	mov    $0x407566,%edi
  40097b:	be 83 76 40 00       	mov    $0x407683,%esi
  400980:	48 89 da             	mov    %rbx,%rdx
  400983:	31 c0                	xor    %eax,%eax
  400985:	e8 b6 fc ff ff       	callq  400640 <__isoc99_sscanf@plt>
  40098a:	8a 84 24 d0 00 00 00 	mov    0xd0(%rsp),%al
  400991:	88 44 24 0b          	mov    %al,0xb(%rsp)
  400995:	bf 68 75 40 00       	mov    $0x407568,%edi
  40099a:	be 83 76 40 00       	mov    $0x407683,%esi
  40099f:	48 89 da             	mov    %rbx,%rdx
  4009a2:	31 c0                	xor    %eax,%eax
  4009a4:	e8 97 fc ff ff       	callq  400640 <__isoc99_sscanf@plt>
  4009a9:	8a 84 24 d0 00 00 00 	mov    0xd0(%rsp),%al
  4009b0:	88 44 24 0c          	mov    %al,0xc(%rsp)
  4009b4:	bf 6a 75 40 00       	mov    $0x40756a,%edi
  4009b9:	be 83 76 40 00       	mov    $0x407683,%esi
  4009be:	48 89 da             	mov    %rbx,%rdx
  4009c1:	31 c0                	xor    %eax,%eax
  4009c3:	e8 78 fc ff ff       	callq  400640 <__isoc99_sscanf@plt>
  4009c8:	8a 84 24 d0 00 00 00 	mov    0xd0(%rsp),%al
  4009cf:	88 44 24 0d          	mov    %al,0xd(%rsp)
  4009d3:	bf 6c 75 40 00       	mov    $0x40756c,%edi
  4009d8:	be 83 76 40 00       	mov    $0x407683,%esi
  4009dd:	48 89 da             	mov    %rbx,%rdx
  4009e0:	31 c0                	xor    %eax,%eax
  4009e2:	e8 59 fc ff ff       	callq  400640 <__isoc99_sscanf@plt>
  4009e7:	8a 84 24 d0 00 00 00 	mov    0xd0(%rsp),%al
  4009ee:	88 44 24 0e          	mov    %al,0xe(%rsp)
  4009f2:	bf 6e 75 40 00       	mov    $0x40756e,%edi
  4009f7:	be 83 76 40 00       	mov    $0x407683,%esi
  4009fc:	48 89 da             	mov    %rbx,%rdx
  4009ff:	31 c0                	xor    %eax,%eax
  400a01:	e8 3a fc ff ff       	callq  400640 <__isoc99_sscanf@plt>
  400a06:	8a 84 24 d0 00 00 00 	mov    0xd0(%rsp),%al
  400a0d:	88 44 24 0f          	mov    %al,0xf(%rsp)
  400a11:	bf 70 75 40 00       	mov    $0x407570,%edi
  400a16:	be 83 76 40 00       	mov    $0x407683,%esi
  400a1b:	48 89 da             	mov    %rbx,%rdx
  400a1e:	31 c0                	xor    %eax,%eax
  400a20:	e8 1b fc ff ff       	callq  400640 <__isoc99_sscanf@plt>
  400a25:	8a 84 24 d0 00 00 00 	mov    0xd0(%rsp),%al
  400a2c:	88 44 24 10          	mov    %al,0x10(%rsp)
  400a30:	bf 72 75 40 00       	mov    $0x407572,%edi
  400a35:	be 83 76 40 00       	mov    $0x407683,%esi
  400a3a:	48 89 da             	mov    %rbx,%rdx
  400a3d:	31 c0                	xor    %eax,%eax
  400a3f:	e8 fc fb ff ff       	callq  400640 <__isoc99_sscanf@plt>
  400a44:	8a 84 24 d0 00 00 00 	mov    0xd0(%rsp),%al
  400a4b:	88 44 24 11          	mov    %al,0x11(%rsp)
  400a4f:	bf 74 75 40 00       	mov    $0x407574,%edi
  400a54:	be 83 76 40 00       	mov    $0x407683,%esi
  400a59:	48 89 da             	mov    %rbx,%rdx
  400a5c:	31 c0                	xor    %eax,%eax
  400a5e:	e8 dd fb ff ff       	callq  400640 <__isoc99_sscanf@plt>
  400a63:	8a 84 24 d0 00 00 00 	mov    0xd0(%rsp),%al
  400a6a:	88 44 24 12          	mov    %al,0x12(%rsp)
  400a6e:	bf 76 75 40 00       	mov    $0x407576,%edi
  400a73:	be 83 76 40 00       	mov    $0x407683,%esi
  400a78:	48 89 da             	mov    %rbx,%rdx
  400a7b:	31 c0                	xor    %eax,%eax
  400a7d:	e8 be fb ff ff       	callq  400640 <__isoc99_sscanf@plt>
  400a82:	8a 84 24 d0 00 00 00 	mov    0xd0(%rsp),%al
  400a89:	88 44 24 13          	mov    %al,0x13(%rsp)
  400a8d:	bf 78 75 40 00       	mov    $0x407578,%edi
  400a92:	be 83 76 40 00       	mov    $0x407683,%esi
  400a97:	48 89 da             	mov    %rbx,%rdx
  400a9a:	31 c0                	xor    %eax,%eax
  400a9c:	e8 9f fb ff ff       	callq  400640 <__isoc99_sscanf@plt>
  400aa1:	8a 84 24 d0 00 00 00 	mov    0xd0(%rsp),%al
  400aa8:	88 44 24 14          	mov    %al,0x14(%rsp)
  400aac:	bf 7a 75 40 00       	mov    $0x40757a,%edi
  400ab1:	be 83 76 40 00       	mov    $0x407683,%esi
  400ab6:	48 89 da             	mov    %rbx,%rdx
  400ab9:	31 c0                	xor    %eax,%eax
  400abb:	e8 80 fb ff ff       	callq  400640 <__isoc99_sscanf@plt>
  400ac0:	8a 84 24 d0 00 00 00 	mov    0xd0(%rsp),%al
  400ac7:	88 44 24 15          	mov    %al,0x15(%rsp)
  400acb:	bf 7c 75 40 00       	mov    $0x40757c,%edi
  400ad0:	be 83 76 40 00       	mov    $0x407683,%esi
  400ad5:	48 89 da             	mov    %rbx,%rdx
  400ad8:	31 c0                	xor    %eax,%eax
  400ada:	e8 61 fb ff ff       	callq  400640 <__isoc99_sscanf@plt>
  400adf:	8a 84 24 d0 00 00 00 	mov    0xd0(%rsp),%al
  400ae6:	88 44 24 16          	mov    %al,0x16(%rsp)
  400aea:	bf 7e 75 40 00       	mov    $0x40757e,%edi
  400aef:	be 83 76 40 00       	mov    $0x407683,%esi
  400af4:	48 89 da             	mov    %rbx,%rdx
  400af7:	31 c0                	xor    %eax,%eax
  400af9:	e8 42 fb ff ff       	callq  400640 <__isoc99_sscanf@plt>
  400afe:	8a 84 24 d0 00 00 00 	mov    0xd0(%rsp),%al
  400b05:	88 44 24 17          	mov    %al,0x17(%rsp)
  400b09:	bf 80 75 40 00       	mov    $0x407580,%edi
  400b0e:	be 83 76 40 00       	mov    $0x407683,%esi
  400b13:	48 89 da             	mov    %rbx,%rdx
  400b16:	31 c0                	xor    %eax,%eax
  400b18:	e8 23 fb ff ff       	callq  400640 <__isoc99_sscanf@plt>
  400b1d:	8a 84 24 d0 00 00 00 	mov    0xd0(%rsp),%al
  400b24:	88 44 24 18          	mov    %al,0x18(%rsp)
  400b28:	bf 82 75 40 00       	mov    $0x407582,%edi
  400b2d:	be 83 76 40 00       	mov    $0x407683,%esi
  400b32:	48 89 da             	mov    %rbx,%rdx
  400b35:	31 c0                	xor    %eax,%eax
  400b37:	e8 04 fb ff ff       	callq  400640 <__isoc99_sscanf@plt>
  400b3c:	8a 84 24 d0 00 00 00 	mov    0xd0(%rsp),%al
  400b43:	88 44 24 19          	mov    %al,0x19(%rsp)
  400b47:	bf 84 75 40 00       	mov    $0x407584,%edi
  400b4c:	be 83 76 40 00       	mov    $0x407683,%esi
  400b51:	48 89 da             	mov    %rbx,%rdx
  400b54:	31 c0                	xor    %eax,%eax
  400b56:	e8 e5 fa ff ff       	callq  400640 <__isoc99_sscanf@plt>
  400b5b:	8a 84 24 d0 00 00 00 	mov    0xd0(%rsp),%al
  400b62:	88 44 24 1a          	mov    %al,0x1a(%rsp)
  400b66:	bf 86 75 40 00       	mov    $0x407586,%edi
  400b6b:	be 83 76 40 00       	mov    $0x407683,%esi
  400b70:	48 89 da             	mov    %rbx,%rdx
  400b73:	31 c0                	xor    %eax,%eax
  400b75:	e8 c6 fa ff ff       	callq  400640 <__isoc99_sscanf@plt>
  400b7a:	8a 84 24 d0 00 00 00 	mov    0xd0(%rsp),%al
  400b81:	88 44 24 1b          	mov    %al,0x1b(%rsp)
  400b85:	bf 88 75 40 00       	mov    $0x407588,%edi
  400b8a:	be 83 76 40 00       	mov    $0x407683,%esi
  400b8f:	48 89 da             	mov    %rbx,%rdx
  400b92:	31 c0                	xor    %eax,%eax
  400b94:	e8 a7 fa ff ff       	callq  400640 <__isoc99_sscanf@plt>
  400b99:	8a 84 24 d0 00 00 00 	mov    0xd0(%rsp),%al
  400ba0:	88 44 24 1c          	mov    %al,0x1c(%rsp)
  400ba4:	bf 8a 75 40 00       	mov    $0x40758a,%edi
  400ba9:	be 83 76 40 00       	mov    $0x407683,%esi
  400bae:	48 89 da             	mov    %rbx,%rdx
  400bb1:	31 c0                	xor    %eax,%eax
  400bb3:	e8 88 fa ff ff       	callq  400640 <__isoc99_sscanf@plt>
  400bb8:	8a 84 24 d0 00 00 00 	mov    0xd0(%rsp),%al
  400bbf:	88 44 24 1d          	mov    %al,0x1d(%rsp)
  400bc3:	bf 8c 75 40 00       	mov    $0x40758c,%edi
  400bc8:	be 83 76 40 00       	mov    $0x407683,%esi
  400bcd:	48 89 da             	mov    %rbx,%rdx
  400bd0:	31 c0                	xor    %eax,%eax
  400bd2:	e8 69 fa ff ff       	callq  400640 <__isoc99_sscanf@plt>
  400bd7:	8a 84 24 d0 00 00 00 	mov    0xd0(%rsp),%al
  400bde:	88 44 24 1e          	mov    %al,0x1e(%rsp)
  400be2:	bf 8e 75 40 00       	mov    $0x40758e,%edi
  400be7:	be 83 76 40 00       	mov    $0x407683,%esi
  400bec:	48 89 da             	mov    %rbx,%rdx
  400bef:	31 c0                	xor    %eax,%eax
  400bf1:	e8 4a fa ff ff       	callq  400640 <__isoc99_sscanf@plt>
  400bf6:	8a 84 24 d0 00 00 00 	mov    0xd0(%rsp),%al
  400bfd:	88 44 24 1f          	mov    %al,0x1f(%rsp)
  400c01:	48 89 e3             	mov    %rsp,%rbx
  400c04:	48 89 df             	mov    %rbx,%rdi
  400c07:	be 00 01 00 00       	mov    $0x100,%esi
  400c0c:	4c 89 fa             	mov    %r15,%rdx
  400c0f:	e8 7c 0b 00 00       	callq  401790 <AES_set_encrypt_key>
  400c14:	4c 8d ac 24 d0 00 00 	lea    0xd0(%rsp),%r13
  400c1b:	00 
  400c1c:	bf 91 75 40 00       	mov    $0x407591,%edi
  400c21:	be 83 76 40 00       	mov    $0x407683,%esi
  400c26:	4c 89 ea             	mov    %r13,%rdx
  400c29:	31 c0                	xor    %eax,%eax
  400c2b:	e8 10 fa ff ff       	callq  400640 <__isoc99_sscanf@plt>
  400c30:	8a 84 24 d0 00 00 00 	mov    0xd0(%rsp),%al
  400c37:	88 04 24             	mov    %al,(%rsp)
  400c3a:	bf 93 75 40 00       	mov    $0x407593,%edi
  400c3f:	be 83 76 40 00       	mov    $0x407683,%esi
  400c44:	4c 89 ea             	mov    %r13,%rdx
  400c47:	31 c0                	xor    %eax,%eax
  400c49:	e8 f2 f9 ff ff       	callq  400640 <__isoc99_sscanf@plt>
  400c4e:	8a 84 24 d0 00 00 00 	mov    0xd0(%rsp),%al
  400c55:	88 44 24 01          	mov    %al,0x1(%rsp)
  400c59:	bf 95 75 40 00       	mov    $0x407595,%edi
  400c5e:	be 83 76 40 00       	mov    $0x407683,%esi
  400c63:	4c 89 ea             	mov    %r13,%rdx
  400c66:	31 c0                	xor    %eax,%eax
  400c68:	e8 d3 f9 ff ff       	callq  400640 <__isoc99_sscanf@plt>
  400c6d:	8a 84 24 d0 00 00 00 	mov    0xd0(%rsp),%al
  400c74:	88 44 24 02          	mov    %al,0x2(%rsp)
  400c78:	bf 97 75 40 00       	mov    $0x407597,%edi
  400c7d:	be 83 76 40 00       	mov    $0x407683,%esi
  400c82:	4c 89 ea             	mov    %r13,%rdx
  400c85:	31 c0                	xor    %eax,%eax
  400c87:	e8 b4 f9 ff ff       	callq  400640 <__isoc99_sscanf@plt>
  400c8c:	8a 84 24 d0 00 00 00 	mov    0xd0(%rsp),%al
  400c93:	88 44 24 03          	mov    %al,0x3(%rsp)
  400c97:	bf 99 75 40 00       	mov    $0x407599,%edi
  400c9c:	be 83 76 40 00       	mov    $0x407683,%esi
  400ca1:	4c 89 ea             	mov    %r13,%rdx
  400ca4:	31 c0                	xor    %eax,%eax
  400ca6:	e8 95 f9 ff ff       	callq  400640 <__isoc99_sscanf@plt>
  400cab:	8a 84 24 d0 00 00 00 	mov    0xd0(%rsp),%al
  400cb2:	88 44 24 04          	mov    %al,0x4(%rsp)
  400cb6:	bf 9b 75 40 00       	mov    $0x40759b,%edi
  400cbb:	be 83 76 40 00       	mov    $0x407683,%esi
  400cc0:	4c 89 ea             	mov    %r13,%rdx
  400cc3:	31 c0                	xor    %eax,%eax
  400cc5:	e8 76 f9 ff ff       	callq  400640 <__isoc99_sscanf@plt>
  400cca:	8a 84 24 d0 00 00 00 	mov    0xd0(%rsp),%al
  400cd1:	88 44 24 05          	mov    %al,0x5(%rsp)
  400cd5:	bf 9d 75 40 00       	mov    $0x40759d,%edi
  400cda:	be 83 76 40 00       	mov    $0x407683,%esi
  400cdf:	4c 89 ea             	mov    %r13,%rdx
  400ce2:	31 c0                	xor    %eax,%eax
  400ce4:	e8 57 f9 ff ff       	callq  400640 <__isoc99_sscanf@plt>
  400ce9:	8a 84 24 d0 00 00 00 	mov    0xd0(%rsp),%al
  400cf0:	88 44 24 06          	mov    %al,0x6(%rsp)
  400cf4:	bf 9f 75 40 00       	mov    $0x40759f,%edi
  400cf9:	be 83 76 40 00       	mov    $0x407683,%esi
  400cfe:	4c 89 ea             	mov    %r13,%rdx
  400d01:	31 c0                	xor    %eax,%eax
  400d03:	e8 38 f9 ff ff       	callq  400640 <__isoc99_sscanf@plt>
  400d08:	8a 84 24 d0 00 00 00 	mov    0xd0(%rsp),%al
  400d0f:	88 44 24 07          	mov    %al,0x7(%rsp)
  400d13:	bf a1 75 40 00       	mov    $0x4075a1,%edi
  400d18:	be 83 76 40 00       	mov    $0x407683,%esi
  400d1d:	4c 89 ea             	mov    %r13,%rdx
  400d20:	31 c0                	xor    %eax,%eax
  400d22:	e8 19 f9 ff ff       	callq  400640 <__isoc99_sscanf@plt>
  400d27:	8a 84 24 d0 00 00 00 	mov    0xd0(%rsp),%al
  400d2e:	88 44 24 08          	mov    %al,0x8(%rsp)
  400d32:	bf a3 75 40 00       	mov    $0x4075a3,%edi
  400d37:	be 83 76 40 00       	mov    $0x407683,%esi
  400d3c:	4c 89 ea             	mov    %r13,%rdx
  400d3f:	31 c0                	xor    %eax,%eax
  400d41:	e8 fa f8 ff ff       	callq  400640 <__isoc99_sscanf@plt>
  400d46:	8a 84 24 d0 00 00 00 	mov    0xd0(%rsp),%al
  400d4d:	88 44 24 09          	mov    %al,0x9(%rsp)
  400d51:	bf a5 75 40 00       	mov    $0x4075a5,%edi
  400d56:	be 83 76 40 00       	mov    $0x407683,%esi
  400d5b:	4c 89 ea             	mov    %r13,%rdx
  400d5e:	31 c0                	xor    %eax,%eax
  400d60:	e8 db f8 ff ff       	callq  400640 <__isoc99_sscanf@plt>
  400d65:	8a 84 24 d0 00 00 00 	mov    0xd0(%rsp),%al
  400d6c:	88 44 24 0a          	mov    %al,0xa(%rsp)
  400d70:	bf a7 75 40 00       	mov    $0x4075a7,%edi
  400d75:	be 83 76 40 00       	mov    $0x407683,%esi
  400d7a:	4c 89 ea             	mov    %r13,%rdx
  400d7d:	31 c0                	xor    %eax,%eax
  400d7f:	e8 bc f8 ff ff       	callq  400640 <__isoc99_sscanf@plt>
  400d84:	8a 84 24 d0 00 00 00 	mov    0xd0(%rsp),%al
  400d8b:	88 44 24 0b          	mov    %al,0xb(%rsp)
  400d8f:	bf a9 75 40 00       	mov    $0x4075a9,%edi
  400d94:	be 83 76 40 00       	mov    $0x407683,%esi
  400d99:	4c 89 ea             	mov    %r13,%rdx
  400d9c:	31 c0                	xor    %eax,%eax
  400d9e:	e8 9d f8 ff ff       	callq  400640 <__isoc99_sscanf@plt>
  400da3:	8a 84 24 d0 00 00 00 	mov    0xd0(%rsp),%al
  400daa:	88 44 24 0c          	mov    %al,0xc(%rsp)
  400dae:	bf ab 75 40 00       	mov    $0x4075ab,%edi
  400db3:	be 83 76 40 00       	mov    $0x407683,%esi
  400db8:	4c 89 ea             	mov    %r13,%rdx
  400dbb:	31 c0                	xor    %eax,%eax
  400dbd:	e8 7e f8 ff ff       	callq  400640 <__isoc99_sscanf@plt>
  400dc2:	8a 84 24 d0 00 00 00 	mov    0xd0(%rsp),%al
  400dc9:	88 44 24 0d          	mov    %al,0xd(%rsp)
  400dcd:	bf ad 75 40 00       	mov    $0x4075ad,%edi
  400dd2:	be 83 76 40 00       	mov    $0x407683,%esi
  400dd7:	4c 89 ea             	mov    %r13,%rdx
  400dda:	31 c0                	xor    %eax,%eax
  400ddc:	e8 5f f8 ff ff       	callq  400640 <__isoc99_sscanf@plt>
  400de1:	8a 84 24 d0 00 00 00 	mov    0xd0(%rsp),%al
  400de8:	88 44 24 0e          	mov    %al,0xe(%rsp)
  400dec:	bf af 75 40 00       	mov    $0x4075af,%edi
  400df1:	be 83 76 40 00       	mov    $0x407683,%esi
  400df6:	4c 89 ea             	mov    %r13,%rdx
  400df9:	31 c0                	xor    %eax,%eax
  400dfb:	e8 40 f8 ff ff       	callq  400640 <__isoc99_sscanf@plt>
  400e00:	8a 84 24 d0 00 00 00 	mov    0xd0(%rsp),%al
  400e07:	88 44 24 0f          	mov    %al,0xf(%rsp)
  400e0b:	bf b1 75 40 00       	mov    $0x4075b1,%edi
  400e10:	be 83 76 40 00       	mov    $0x407683,%esi
  400e15:	4c 89 ea             	mov    %r13,%rdx
  400e18:	31 c0                	xor    %eax,%eax
  400e1a:	e8 21 f8 ff ff       	callq  400640 <__isoc99_sscanf@plt>
  400e1f:	8a 84 24 d0 00 00 00 	mov    0xd0(%rsp),%al
  400e26:	88 44 24 10          	mov    %al,0x10(%rsp)
  400e2a:	bf b3 75 40 00       	mov    $0x4075b3,%edi
  400e2f:	be 83 76 40 00       	mov    $0x407683,%esi
  400e34:	4c 89 ea             	mov    %r13,%rdx
  400e37:	31 c0                	xor    %eax,%eax
  400e39:	e8 02 f8 ff ff       	callq  400640 <__isoc99_sscanf@plt>
  400e3e:	8a 84 24 d0 00 00 00 	mov    0xd0(%rsp),%al
  400e45:	88 44 24 11          	mov    %al,0x11(%rsp)
  400e49:	bf b5 75 40 00       	mov    $0x4075b5,%edi
  400e4e:	be 83 76 40 00       	mov    $0x407683,%esi
  400e53:	4c 89 ea             	mov    %r13,%rdx
  400e56:	31 c0                	xor    %eax,%eax
  400e58:	e8 e3 f7 ff ff       	callq  400640 <__isoc99_sscanf@plt>
  400e5d:	8a 84 24 d0 00 00 00 	mov    0xd0(%rsp),%al
  400e64:	88 44 24 12          	mov    %al,0x12(%rsp)
  400e68:	bf b7 75 40 00       	mov    $0x4075b7,%edi
  400e6d:	be 83 76 40 00       	mov    $0x407683,%esi
  400e72:	4c 89 ea             	mov    %r13,%rdx
  400e75:	31 c0                	xor    %eax,%eax
  400e77:	e8 c4 f7 ff ff       	callq  400640 <__isoc99_sscanf@plt>
  400e7c:	8a 84 24 d0 00 00 00 	mov    0xd0(%rsp),%al
  400e83:	88 44 24 13          	mov    %al,0x13(%rsp)
  400e87:	bf b9 75 40 00       	mov    $0x4075b9,%edi
  400e8c:	be 83 76 40 00       	mov    $0x407683,%esi
  400e91:	4c 89 ea             	mov    %r13,%rdx
  400e94:	31 c0                	xor    %eax,%eax
  400e96:	e8 a5 f7 ff ff       	callq  400640 <__isoc99_sscanf@plt>
  400e9b:	8a 84 24 d0 00 00 00 	mov    0xd0(%rsp),%al
  400ea2:	88 44 24 14          	mov    %al,0x14(%rsp)
  400ea6:	bf bb 75 40 00       	mov    $0x4075bb,%edi
  400eab:	be 83 76 40 00       	mov    $0x407683,%esi
  400eb0:	4c 89 ea             	mov    %r13,%rdx
  400eb3:	31 c0                	xor    %eax,%eax
  400eb5:	e8 86 f7 ff ff       	callq  400640 <__isoc99_sscanf@plt>
  400eba:	8a 84 24 d0 00 00 00 	mov    0xd0(%rsp),%al
  400ec1:	88 44 24 15          	mov    %al,0x15(%rsp)
  400ec5:	bf bd 75 40 00       	mov    $0x4075bd,%edi
  400eca:	be 83 76 40 00       	mov    $0x407683,%esi
  400ecf:	4c 89 ea             	mov    %r13,%rdx
  400ed2:	31 c0                	xor    %eax,%eax
  400ed4:	e8 67 f7 ff ff       	callq  400640 <__isoc99_sscanf@plt>
  400ed9:	8a 84 24 d0 00 00 00 	mov    0xd0(%rsp),%al
  400ee0:	88 44 24 16          	mov    %al,0x16(%rsp)
  400ee4:	bf bf 75 40 00       	mov    $0x4075bf,%edi
  400ee9:	be 83 76 40 00       	mov    $0x407683,%esi
  400eee:	4c 89 ea             	mov    %r13,%rdx
  400ef1:	31 c0                	xor    %eax,%eax
  400ef3:	e8 48 f7 ff ff       	callq  400640 <__isoc99_sscanf@plt>
  400ef8:	8a 84 24 d0 00 00 00 	mov    0xd0(%rsp),%al
  400eff:	88 44 24 17          	mov    %al,0x17(%rsp)
  400f03:	bf c1 75 40 00       	mov    $0x4075c1,%edi
  400f08:	be 83 76 40 00       	mov    $0x407683,%esi
  400f0d:	4c 89 ea             	mov    %r13,%rdx
  400f10:	31 c0                	xor    %eax,%eax
  400f12:	e8 29 f7 ff ff       	callq  400640 <__isoc99_sscanf@plt>
  400f17:	8a 84 24 d0 00 00 00 	mov    0xd0(%rsp),%al
  400f1e:	88 44 24 18          	mov    %al,0x18(%rsp)
  400f22:	bf c3 75 40 00       	mov    $0x4075c3,%edi
  400f27:	be 83 76 40 00       	mov    $0x407683,%esi
  400f2c:	4c 89 ea             	mov    %r13,%rdx
  400f2f:	31 c0                	xor    %eax,%eax
  400f31:	e8 0a f7 ff ff       	callq  400640 <__isoc99_sscanf@plt>
  400f36:	8a 84 24 d0 00 00 00 	mov    0xd0(%rsp),%al
  400f3d:	88 44 24 19          	mov    %al,0x19(%rsp)
  400f41:	bf c5 75 40 00       	mov    $0x4075c5,%edi
  400f46:	be 83 76 40 00       	mov    $0x407683,%esi
  400f4b:	4c 89 ea             	mov    %r13,%rdx
  400f4e:	31 c0                	xor    %eax,%eax
  400f50:	e8 eb f6 ff ff       	callq  400640 <__isoc99_sscanf@plt>
  400f55:	8a 84 24 d0 00 00 00 	mov    0xd0(%rsp),%al
  400f5c:	88 44 24 1a          	mov    %al,0x1a(%rsp)
  400f60:	bf c7 75 40 00       	mov    $0x4075c7,%edi
  400f65:	be 83 76 40 00       	mov    $0x407683,%esi
  400f6a:	4c 89 ea             	mov    %r13,%rdx
  400f6d:	31 c0                	xor    %eax,%eax
  400f6f:	e8 cc f6 ff ff       	callq  400640 <__isoc99_sscanf@plt>
  400f74:	8a 84 24 d0 00 00 00 	mov    0xd0(%rsp),%al
  400f7b:	88 44 24 1b          	mov    %al,0x1b(%rsp)
  400f7f:	bf c9 75 40 00       	mov    $0x4075c9,%edi
  400f84:	be 83 76 40 00       	mov    $0x407683,%esi
  400f89:	4c 89 ea             	mov    %r13,%rdx
  400f8c:	31 c0                	xor    %eax,%eax
  400f8e:	e8 ad f6 ff ff       	callq  400640 <__isoc99_sscanf@plt>
  400f93:	8a 84 24 d0 00 00 00 	mov    0xd0(%rsp),%al
  400f9a:	88 44 24 1c          	mov    %al,0x1c(%rsp)
  400f9e:	bf cb 75 40 00       	mov    $0x4075cb,%edi
  400fa3:	be 83 76 40 00       	mov    $0x407683,%esi
  400fa8:	4c 89 ea             	mov    %r13,%rdx
  400fab:	31 c0                	xor    %eax,%eax
  400fad:	e8 8e f6 ff ff       	callq  400640 <__isoc99_sscanf@plt>
  400fb2:	8a 84 24 d0 00 00 00 	mov    0xd0(%rsp),%al
  400fb9:	88 44 24 1d          	mov    %al,0x1d(%rsp)
  400fbd:	bf cd 75 40 00       	mov    $0x4075cd,%edi
  400fc2:	be 83 76 40 00       	mov    $0x407683,%esi
  400fc7:	4c 89 ea             	mov    %r13,%rdx
  400fca:	31 c0                	xor    %eax,%eax
  400fcc:	e8 6f f6 ff ff       	callq  400640 <__isoc99_sscanf@plt>
  400fd1:	8a 84 24 d0 00 00 00 	mov    0xd0(%rsp),%al
  400fd8:	88 44 24 1e          	mov    %al,0x1e(%rsp)
  400fdc:	bf cf 75 40 00       	mov    $0x4075cf,%edi
  400fe1:	be 83 76 40 00       	mov    $0x407683,%esi
  400fe6:	4c 89 ea             	mov    %r13,%rdx
  400fe9:	31 c0                	xor    %eax,%eax
  400feb:	e8 50 f6 ff ff       	callq  400640 <__isoc99_sscanf@plt>
  400ff0:	8a 84 24 d0 00 00 00 	mov    0xd0(%rsp),%al
  400ff7:	88 44 24 1f          	mov    %al,0x1f(%rsp)
  400ffb:	48 89 df             	mov    %rbx,%rdi
  400ffe:	be 00 01 00 00       	mov    $0x100,%esi
  401003:	48 89 ea             	mov    %rbp,%rdx
  401006:	e8 85 07 00 00       	callq  401790 <AES_set_encrypt_key>
  40100b:	48 8d 9c 24 d0 00 00 	lea    0xd0(%rsp),%rbx
  401012:	00 
  401013:	bf d2 75 40 00       	mov    $0x4075d2,%edi
  401018:	be 83 76 40 00       	mov    $0x407683,%esi
  40101d:	48 89 da             	mov    %rbx,%rdx
  401020:	31 c0                	xor    %eax,%eax
  401022:	e8 19 f6 ff ff       	callq  400640 <__isoc99_sscanf@plt>
  401027:	8a 84 24 d0 00 00 00 	mov    0xd0(%rsp),%al
  40102e:	88 44 24 20          	mov    %al,0x20(%rsp)
  401032:	bf d4 75 40 00       	mov    $0x4075d4,%edi
  401037:	be 83 76 40 00       	mov    $0x407683,%esi
  40103c:	48 89 da             	mov    %rbx,%rdx
  40103f:	31 c0                	xor    %eax,%eax
  401041:	e8 fa f5 ff ff       	callq  400640 <__isoc99_sscanf@plt>
  401046:	8a 84 24 d0 00 00 00 	mov    0xd0(%rsp),%al
  40104d:	88 44 24 21          	mov    %al,0x21(%rsp)
  401051:	bf d6 75 40 00       	mov    $0x4075d6,%edi
  401056:	be 83 76 40 00       	mov    $0x407683,%esi
  40105b:	48 89 da             	mov    %rbx,%rdx
  40105e:	31 c0                	xor    %eax,%eax
  401060:	e8 db f5 ff ff       	callq  400640 <__isoc99_sscanf@plt>
  401065:	8a 84 24 d0 00 00 00 	mov    0xd0(%rsp),%al
  40106c:	88 44 24 22          	mov    %al,0x22(%rsp)
  401070:	bf d8 75 40 00       	mov    $0x4075d8,%edi
  401075:	be 83 76 40 00       	mov    $0x407683,%esi
  40107a:	48 89 da             	mov    %rbx,%rdx
  40107d:	31 c0                	xor    %eax,%eax
  40107f:	e8 bc f5 ff ff       	callq  400640 <__isoc99_sscanf@plt>
  401084:	8a 84 24 d0 00 00 00 	mov    0xd0(%rsp),%al
  40108b:	88 44 24 23          	mov    %al,0x23(%rsp)
  40108f:	bf da 75 40 00       	mov    $0x4075da,%edi
  401094:	be 83 76 40 00       	mov    $0x407683,%esi
  401099:	48 89 da             	mov    %rbx,%rdx
  40109c:	31 c0                	xor    %eax,%eax
  40109e:	e8 9d f5 ff ff       	callq  400640 <__isoc99_sscanf@plt>
  4010a3:	8a 84 24 d0 00 00 00 	mov    0xd0(%rsp),%al
  4010aa:	88 44 24 24          	mov    %al,0x24(%rsp)
  4010ae:	bf dc 75 40 00       	mov    $0x4075dc,%edi
  4010b3:	be 83 76 40 00       	mov    $0x407683,%esi
  4010b8:	48 89 da             	mov    %rbx,%rdx
  4010bb:	31 c0                	xor    %eax,%eax
  4010bd:	e8 7e f5 ff ff       	callq  400640 <__isoc99_sscanf@plt>
  4010c2:	8a 84 24 d0 00 00 00 	mov    0xd0(%rsp),%al
  4010c9:	88 44 24 25          	mov    %al,0x25(%rsp)
  4010cd:	bf de 75 40 00       	mov    $0x4075de,%edi
  4010d2:	be 83 76 40 00       	mov    $0x407683,%esi
  4010d7:	48 89 da             	mov    %rbx,%rdx
  4010da:	31 c0                	xor    %eax,%eax
  4010dc:	e8 5f f5 ff ff       	callq  400640 <__isoc99_sscanf@plt>
  4010e1:	8a 84 24 d0 00 00 00 	mov    0xd0(%rsp),%al
  4010e8:	88 44 24 26          	mov    %al,0x26(%rsp)
  4010ec:	bf e0 75 40 00       	mov    $0x4075e0,%edi
  4010f1:	be 83 76 40 00       	mov    $0x407683,%esi
  4010f6:	48 89 da             	mov    %rbx,%rdx
  4010f9:	31 c0                	xor    %eax,%eax
  4010fb:	e8 40 f5 ff ff       	callq  400640 <__isoc99_sscanf@plt>
  401100:	8a 84 24 d0 00 00 00 	mov    0xd0(%rsp),%al
  401107:	88 44 24 27          	mov    %al,0x27(%rsp)
  40110b:	bf e2 75 40 00       	mov    $0x4075e2,%edi
  401110:	be 83 76 40 00       	mov    $0x407683,%esi
  401115:	48 89 da             	mov    %rbx,%rdx
  401118:	31 c0                	xor    %eax,%eax
  40111a:	e8 21 f5 ff ff       	callq  400640 <__isoc99_sscanf@plt>
  40111f:	8a 84 24 d0 00 00 00 	mov    0xd0(%rsp),%al
  401126:	88 44 24 28          	mov    %al,0x28(%rsp)
  40112a:	bf e4 75 40 00       	mov    $0x4075e4,%edi
  40112f:	be 83 76 40 00       	mov    $0x407683,%esi
  401134:	48 89 da             	mov    %rbx,%rdx
  401137:	31 c0                	xor    %eax,%eax
  401139:	e8 02 f5 ff ff       	callq  400640 <__isoc99_sscanf@plt>
  40113e:	8a 84 24 d0 00 00 00 	mov    0xd0(%rsp),%al
  401145:	88 44 24 29          	mov    %al,0x29(%rsp)
  401149:	bf e6 75 40 00       	mov    $0x4075e6,%edi
  40114e:	be 83 76 40 00       	mov    $0x407683,%esi
  401153:	48 89 da             	mov    %rbx,%rdx
  401156:	31 c0                	xor    %eax,%eax
  401158:	e8 e3 f4 ff ff       	callq  400640 <__isoc99_sscanf@plt>
  40115d:	8a 84 24 d0 00 00 00 	mov    0xd0(%rsp),%al
  401164:	88 44 24 2a          	mov    %al,0x2a(%rsp)
  401168:	bf e8 75 40 00       	mov    $0x4075e8,%edi
  40116d:	be 83 76 40 00       	mov    $0x407683,%esi
  401172:	48 89 da             	mov    %rbx,%rdx
  401175:	31 c0                	xor    %eax,%eax
  401177:	e8 c4 f4 ff ff       	callq  400640 <__isoc99_sscanf@plt>
  40117c:	8a 84 24 d0 00 00 00 	mov    0xd0(%rsp),%al
  401183:	88 44 24 2b          	mov    %al,0x2b(%rsp)
  401187:	bf ea 75 40 00       	mov    $0x4075ea,%edi
  40118c:	be 83 76 40 00       	mov    $0x407683,%esi
  401191:	48 89 da             	mov    %rbx,%rdx
  401194:	31 c0                	xor    %eax,%eax
  401196:	e8 a5 f4 ff ff       	callq  400640 <__isoc99_sscanf@plt>
  40119b:	8a 84 24 d0 00 00 00 	mov    0xd0(%rsp),%al
  4011a2:	88 44 24 2c          	mov    %al,0x2c(%rsp)
  4011a6:	bf ec 75 40 00       	mov    $0x4075ec,%edi
  4011ab:	be 83 76 40 00       	mov    $0x407683,%esi
  4011b0:	48 89 da             	mov    %rbx,%rdx
  4011b3:	31 c0                	xor    %eax,%eax
  4011b5:	e8 86 f4 ff ff       	callq  400640 <__isoc99_sscanf@plt>
  4011ba:	8a 84 24 d0 00 00 00 	mov    0xd0(%rsp),%al
  4011c1:	88 44 24 2d          	mov    %al,0x2d(%rsp)
  4011c5:	bf ee 75 40 00       	mov    $0x4075ee,%edi
  4011ca:	be 83 76 40 00       	mov    $0x407683,%esi
  4011cf:	48 89 da             	mov    %rbx,%rdx
  4011d2:	31 c0                	xor    %eax,%eax
  4011d4:	e8 67 f4 ff ff       	callq  400640 <__isoc99_sscanf@plt>
  4011d9:	8a 84 24 d0 00 00 00 	mov    0xd0(%rsp),%al
  4011e0:	88 44 24 2e          	mov    %al,0x2e(%rsp)
  4011e4:	bf f0 75 40 00       	mov    $0x4075f0,%edi
  4011e9:	be 83 76 40 00       	mov    $0x407683,%esi
  4011ee:	48 89 da             	mov    %rbx,%rdx
  4011f1:	31 c0                	xor    %eax,%eax
  4011f3:	e8 48 f4 ff ff       	callq  400640 <__isoc99_sscanf@plt>
  4011f8:	8a 84 24 d0 00 00 00 	mov    0xd0(%rsp),%al
  4011ff:	88 44 24 2f          	mov    %al,0x2f(%rsp)
  401203:	4c 8d 64 24 20       	lea    0x20(%rsp),%r12
  401208:	48 8d b4 24 a0 00 00 	lea    0xa0(%rsp),%rsi
  40120f:	00 
  401210:	4c 89 e7             	mov    %r12,%rdi
  401213:	4c 89 fa             	mov    %r15,%rdx
  401216:	e8 65 60 00 00       	callq  407280 <looped>
  40121b:	48 8b 44 24 40       	mov    0x40(%rsp),%rax
  401220:	c7 80 00 11 00 00 0a 	movl   $0xa,0x1100(%rax)
  401227:	00 00 00 
  40122a:	48 8d b4 24 90 00 00 	lea    0x90(%rsp),%rsi
  401231:	00 
  401232:	4c 89 e7             	mov    %r12,%rdi
  401235:	48 89 6c 24 68       	mov    %rbp,0x68(%rsp)
  40123a:	48 89 ea             	mov    %rbp,%rdx
  40123d:	e8 3e 60 00 00       	callq  407280 <looped>
  401242:	48 8b 44 24 38       	mov    0x38(%rsp),%rax
  401247:	4c 8d b0 00 21 00 00 	lea    0x2100(%rax),%r14
  40124e:	8b 98 00 21 00 00    	mov    0x2100(%rax),%ebx
  401254:	c7 80 00 21 00 00 0a 	movl   $0xa,0x2100(%rax)
  40125b:	00 00 00 
  40125e:	48 89 c5             	mov    %rax,%rbp
  401261:	4c 8d ac 24 c0 00 00 	lea    0xc0(%rsp),%r13
  401268:	00 
  401269:	4c 89 e7             	mov    %r12,%rdi
  40126c:	4c 89 ee             	mov    %r13,%rsi
  40126f:	4c 89 7c 24 40       	mov    %r15,0x40(%rsp)
  401274:	4c 89 fa             	mov    %r15,%rdx
  401277:	e8 04 60 00 00       	callq  407280 <looped>
  40127c:	89 9d 00 21 00 00    	mov    %ebx,0x2100(%rbp)
  401282:	bf f3 75 40 00       	mov    $0x4075f3,%edi
  401287:	48 8d b4 24 a0 00 00 	lea    0xa0(%rsp),%rsi
  40128e:	00 
  40128f:	e8 3c 03 00 00       	callq  4015d0 <print>
  401294:	bf ff 75 40 00       	mov    $0x4075ff,%edi
  401299:	4c 89 ee             	mov    %r13,%rsi
  40129c:	e8 2f 03 00 00       	callq  4015d0 <print>
  4012a1:	bf 0b 76 40 00       	mov    $0x40760b,%edi
  4012a6:	48 8d b4 24 90 00 00 	lea    0x90(%rsp),%rsi
  4012ad:	00 
  4012ae:	e8 1d 03 00 00       	callq  4015d0 <print>
  4012b3:	bf 0a 00 00 00       	mov    $0xa,%edi
  4012b8:	e8 13 f3 ff ff       	callq  4005d0 <putchar@plt>
  4012bd:	48 8b 44 24 48       	mov    0x48(%rsp),%rax
  4012c2:	89 c1                	mov    %eax,%ecx
  4012c4:	83 e1 3f             	and    $0x3f,%ecx
  4012c7:	48 89 4c 24 60       	mov    %rcx,0x60(%rsp)
  4012cc:	49 89 c5             	mov    %rax,%r13
  4012cf:	48 89 c1             	mov    %rax,%rcx
  4012d2:	48 83 e1 c0          	and    $0xffffffffffffffc0,%rcx
  4012d6:	4c 89 f0             	mov    %r14,%rax
  4012d9:	4c 89 74 24 38       	mov    %r14,0x38(%rsp)
  4012de:	48 89 cb             	mov    %rcx,%rbx
  4012e1:	49 83 e6 c0          	and    $0xffffffffffffffc0,%r14
  4012e5:	4c 89 74 24 50       	mov    %r14,0x50(%rsp)
  4012ea:	49 8d 46 40          	lea    0x40(%r14),%rax
  4012ee:	48 89 44 24 78       	mov    %rax,0x78(%rsp)
  4012f3:	45 31 e4             	xor    %r12d,%r12d
  4012f6:	48 89 4c 24 58       	mov    %rcx,0x58(%rsp)
  4012fb:	e9 0e 00 00 00       	jmpq   40130e <main+0xb9e>
  401300:	49 83 c4 01          	add    $0x1,%r12
  401304:	49 83 fc 10          	cmp    $0x10,%r12
  401308:	0f 84 20 02 00 00    	je     40152e <main+0xdbe>
  40130e:	ba 00 08 00 00       	mov    $0x800,%edx
  401313:	48 8d bc 24 d0 00 00 	lea    0xd0(%rsp),%rdi
  40131a:	00 
  40131b:	31 f6                	xor    %esi,%esi
  40131d:	e8 fe f2 ff ff       	callq  400620 <memset@plt>
  401322:	31 c0                	xor    %eax,%eax
  401324:	e9 1f 00 00 00       	jmpq   401348 <main+0xbd8>
  401329:	0f 1f 80 00 00 00 00 	nopl   0x0(%rax)
  401330:	48 8b 44 24 70       	mov    0x70(%rsp),%rax
  401335:	48 83 c0 01          	add    $0x1,%rax
  401339:	48 83 f8 64          	cmp    $0x64,%rax
  40133d:	48 8b 5c 24 58       	mov    0x58(%rsp),%rbx
  401342:	0f 84 88 01 00 00    	je     4014d0 <main+0xd60>
  401348:	48 89 44 24 70       	mov    %rax,0x70(%rsp)
  40134d:	48 8b 84 24 88 00 00 	mov    0x88(%rsp),%rax
  401354:	00 
  401355:	48 03 44 24 60       	add    0x60(%rsp),%rax
  40135a:	48 8b 6c 24 68       	mov    0x68(%rsp),%rbp
  40135f:	0f 84 18 00 00 00    	je     40137d <main+0xc0d>
  401365:	31 c9                	xor    %ecx,%ecx
  401367:	66 0f 1f 84 00 00 00 	nopw   0x0(%rax,%rax,1)
  40136e:	00 00 
  401370:	0f ae 3c 0b          	clflush (%rbx,%rcx,1)
  401374:	48 83 c1 40          	add    $0x40,%rcx
  401378:	48 39 c1             	cmp    %rax,%rcx
  40137b:	72 f3                	jb     401370 <main+0xc00>
  40137d:	45 31 ff             	xor    %r15d,%r15d
  401380:	48 8b 5c 24 50       	mov    0x50(%rsp),%rbx
  401385:	66 2e 0f 1f 84 00 00 	nopw   %cs:0x0(%rax,%rax,1)
  40138c:	00 00 00 
  40138f:	90                   	nop
  401390:	48 b8 80 ff ff ff ff 	movabs $0x7fffffffffffff80,%rax
  401397:	ff ff 7f 
  40139a:	4c 01 f8             	add    %r15,%rax
  40139d:	48 c1 e8 1f          	shr    $0x1f,%rax
  4013a1:	48 63 c8             	movslq %eax,%rcx
  4013a4:	49 89 ce             	mov    %rcx,%r14
  4013a7:	4c 23 b4 24 80 00 00 	and    0x80(%rsp),%r14
  4013ae:	00 
  4013af:	48 89 c8             	mov    %rcx,%rax
  4013b2:	48 f7 d0             	not    %rax
  4013b5:	4c 89 ea             	mov    %r13,%rdx
  4013b8:	0f ae 3b             	clflush (%rbx)
  4013bb:	48 21 c2             	and    %rax,%rdx
  4013be:	48 21 e9             	and    %rbp,%rcx
  4013c1:	48 23 44 24 40       	and    0x40(%rsp),%rax
  4013c6:	f6 44 24 38 3f       	testb  $0x3f,0x38(%rsp)
  4013cb:	74 08                	je     4013d5 <main+0xc65>
  4013cd:	48 8b 74 24 78       	mov    0x78(%rsp),%rsi
  4013d2:	0f ae 3e             	clflush (%rsi)
  4013d5:	49 09 d6             	or     %rdx,%r14
  4013d8:	48 09 c1             	or     %rax,%rcx
  4013db:	0f ae f0             	mfence 
  4013de:	be c8 00 00 00       	mov    $0xc8,%esi
  4013e3:	66 2e 0f 1f 84 00 00 	nopw   %cs:0x0(%rax,%rax,1)
  4013ea:	00 00 00 
  4013ed:	0f 1f 00             	nopl   (%rax)
  4013f0:	8b 05 9a 7c 20 00    	mov    0x207c9a(%rip),%eax        # 609090 <spin_junk>
  4013f6:	83 c0 01             	add    $0x1,%eax
  4013f9:	0f af 05 90 7c 20 00 	imul   0x207c90(%rip),%eax        # 609090 <spin_junk>
  401400:	8b 3d 8a 7c 20 00    	mov    0x207c8a(%rip),%edi        # 609090 <spin_junk>
  401406:	83 c7 ff             	add    $0xffffffff,%edi
  401409:	31 d2                	xor    %edx,%edx
  40140b:	f7 f7                	div    %edi
  40140d:	89 05 7d 7c 20 00    	mov    %eax,0x207c7d(%rip)        # 609090 <spin_junk>
  401413:	8b 05 77 7c 20 00    	mov    0x207c77(%rip),%eax        # 609090 <spin_junk>
  401419:	83 c0 01             	add    $0x1,%eax
  40141c:	0f af 05 6d 7c 20 00 	imul   0x207c6d(%rip),%eax        # 609090 <spin_junk>
  401423:	8b 3d 67 7c 20 00    	mov    0x207c67(%rip),%edi        # 609090 <spin_junk>
  401429:	83 c7 ff             	add    $0xffffffff,%edi
  40142c:	31 d2                	xor    %edx,%edx
  40142e:	f7 f7                	div    %edi
  401430:	89 05 5a 7c 20 00    	mov    %eax,0x207c5a(%rip)        # 609090 <spin_junk>
  401436:	48 83 c6 fe          	add    $0xfffffffffffffffe,%rsi
  40143a:	75 b4                	jne    4013f0 <main+0xc80>
  40143c:	48 8d 7c 24 20       	lea    0x20(%rsp),%rdi
  401441:	48 8d b4 24 b0 00 00 	lea    0xb0(%rsp),%rsi
  401448:	00 
  401449:	48 89 ca             	mov    %rcx,%rdx
  40144c:	e8 2f 5e 00 00       	callq  407280 <looped>
  401451:	42 0f b6 84 24 b0 00 	movzbl 0xb0(%rsp,%r12,1),%eax
  401458:	00 00 
  40145a:	48 c1 e0 0c          	shl    $0xc,%rax
  40145e:	41 80 04 06 01       	addb   $0x1,(%r14,%rax,1)
  401463:	49 83 c7 01          	add    $0x1,%r15
  401467:	49 81 ff 81 00 00 00 	cmp    $0x81,%r15
  40146e:	0f 85 1c ff ff ff    	jne    401390 <main+0xc20>
  401474:	4c 89 ef             	mov    %r13,%rdi
  401477:	31 ed                	xor    %ebp,%ebp
  401479:	e9 1a 00 00 00       	jmpq   401498 <main+0xd28>
  40147e:	66 90                	xchg   %ax,%ax
  401480:	48 83 c5 01          	add    $0x1,%rbp
  401484:	48 81 c7 00 10 00 00 	add    $0x1000,%rdi
  40148b:	48 81 fd 00 01 00 00 	cmp    $0x100,%rbp
  401492:	0f 84 98 fe ff ff    	je     401330 <main+0xbc0>
  401498:	0f 01 f9             	rdtscp 
  40149b:	48 89 d6             	mov    %rdx,%rsi
  40149e:	48 c1 e6 20          	shl    $0x20,%rsi
  4014a2:	48 09 c6             	or     %rax,%rsi
  4014a5:	80 07 01             	addb   $0x1,(%rdi)
  4014a8:	0f 01 f9             	rdtscp 
  4014ab:	48 c1 e2 20          	shl    $0x20,%rdx
  4014af:	48 09 c2             	or     %rax,%rdx
  4014b2:	48 29 f2             	sub    %rsi,%rdx
  4014b5:	48 83 fa 63          	cmp    $0x63,%rdx
  4014b9:	0f 87 c1 ff ff ff    	ja     401480 <main+0xd10>
  4014bf:	48 83 84 ec d0 00 00 	addq   $0x1,0xd0(%rsp,%rbp,8)
  4014c6:	00 01 
  4014c8:	e9 b3 ff ff ff       	jmpq   401480 <main+0xd10>
  4014cd:	0f 1f 00             	nopl   (%rax)
  4014d0:	45 31 ff             	xor    %r15d,%r15d
  4014d3:	e9 19 00 00 00       	jmpq   4014f1 <main+0xd81>
  4014d8:	0f 1f 84 00 00 00 00 	nopl   0x0(%rax,%rax,1)
  4014df:	00 
  4014e0:	49 83 c7 01          	add    $0x1,%r15
  4014e4:	49 81 ff 00 01 00 00 	cmp    $0x100,%r15
  4014eb:	0f 84 0f fe ff ff    	je     401300 <main+0xb90>
  4014f1:	4a 8b 8c fc d0 00 00 	mov    0xd0(%rsp,%r15,8),%rcx
  4014f8:	00 
  4014f9:	48 85 c9             	test   %rcx,%rcx
  4014fc:	74 e2                	je     4014e0 <main+0xd70>
  4014fe:	42 0f b6 84 24 a0 00 	movzbl 0xa0(%rsp,%r12,1),%eax
  401505:	00 00 
  401507:	49 39 c7             	cmp    %rax,%r15
  40150a:	74 d4                	je     4014e0 <main+0xd70>
  40150c:	42 0f b6 84 24 90 00 	movzbl 0x90(%rsp,%r12,1),%eax
  401513:	00 00 
  401515:	49 39 c7             	cmp    %rax,%r15
  401518:	74 c6                	je     4014e0 <main+0xd70>
  40151a:	bf 17 76 40 00       	mov    $0x407617,%edi
  40151f:	4c 89 e6             	mov    %r12,%rsi
  401522:	4c 89 fa             	mov    %r15,%rdx
  401525:	31 c0                	xor    %eax,%eax
  401527:	e8 d4 f0 ff ff       	callq  400600 <printf@plt>
  40152c:	eb b2                	jmp    4014e0 <main+0xd70>
  40152e:	31 c0                	xor    %eax,%eax
  401530:	48 81 c4 d8 08 00 00 	add    $0x8d8,%rsp
  401537:	5b                   	pop    %rbx
  401538:	41 5c                	pop    %r12
  40153a:	41 5d                	pop    %r13
  40153c:	41 5e                	pop    %r14
  40153e:	41 5f                	pop    %r15
  401540:	5d                   	pop    %rbp
  401541:	c3                   	retq   
  401542:	66 2e 0f 1f 84 00 00 	nopw   %cs:0x0(%rax,%rax,1)
  401549:	00 00 00 
  40154c:	0f 1f 40 00          	nopl   0x0(%rax)

0000000000401550 <tobinary>:
  401550:	41 57                	push   %r15
  401552:	41 56                	push   %r14
  401554:	41 55                	push   %r13
  401556:	41 54                	push   %r12
  401558:	53                   	push   %rbx
  401559:	48 83 ec 10          	sub    $0x10,%rsp
  40155d:	49 89 d7             	mov    %rdx,%r15
  401560:	49 89 f6             	mov    %rsi,%r14
  401563:	49 89 fd             	mov    %rdi,%r13
  401566:	e8 75 f0 ff ff       	callq  4005e0 <strlen@plt>
  40156b:	4b 8d 0c 3f          	lea    (%r15,%r15,1),%rcx
  40156f:	48 39 c8             	cmp    %rcx,%rax
  401572:	75 42                	jne    4015b6 <tobinary+0x66>
  401574:	4d 85 ff             	test   %r15,%r15
  401577:	74 2f                	je     4015a8 <tobinary+0x58>
  401579:	4c 8d 64 24 0c       	lea    0xc(%rsp),%r12
  40157e:	31 db                	xor    %ebx,%ebx
  401580:	be 83 76 40 00       	mov    $0x407683,%esi
  401585:	4c 89 ef             	mov    %r13,%rdi
  401588:	4c 89 e2             	mov    %r12,%rdx
  40158b:	31 c0                	xor    %eax,%eax
  40158d:	e8 ae f0 ff ff       	callq  400640 <__isoc99_sscanf@plt>
  401592:	0f b6 44 24 0c       	movzbl 0xc(%rsp),%eax
  401597:	41 88 04 1e          	mov    %al,(%r14,%rbx,1)
  40159b:	48 83 c3 01          	add    $0x1,%rbx
  40159f:	49 83 c5 02          	add    $0x2,%r13
  4015a3:	49 39 df             	cmp    %rbx,%r15
  4015a6:	75 d8                	jne    401580 <tobinary+0x30>
  4015a8:	48 83 c4 10          	add    $0x10,%rsp
  4015ac:	5b                   	pop    %rbx
  4015ad:	41 5c                	pop    %r12
  4015af:	41 5d                	pop    %r13
  4015b1:	41 5e                	pop    %r14
  4015b3:	41 5f                	pop    %r15
  4015b5:	c3                   	retq   
  4015b6:	bf 3e 76 40 00       	mov    $0x40763e,%edi
  4015bb:	be 53 76 40 00       	mov    $0x407653,%esi
  4015c0:	b9 5a 76 40 00       	mov    $0x40765a,%ecx
  4015c5:	ba a6 00 00 00       	mov    $0xa6,%edx
  4015ca:	e8 41 f0 ff ff       	callq  400610 <__assert_fail@plt>
  4015cf:	90                   	nop

00000000004015d0 <print>:
  4015d0:	53                   	push   %rbx
  4015d1:	48 89 f3             	mov    %rsi,%rbx
  4015d4:	48 89 fe             	mov    %rdi,%rsi
  4015d7:	bf 87 76 40 00       	mov    $0x407687,%edi
  4015dc:	31 c0                	xor    %eax,%eax
  4015de:	e8 1d f0 ff ff       	callq  400600 <printf@plt>
  4015e3:	0f b6 33             	movzbl (%rbx),%esi
  4015e6:	bf 8c 76 40 00       	mov    $0x40768c,%edi
  4015eb:	31 c0                	xor    %eax,%eax
  4015ed:	e8 0e f0 ff ff       	callq  400600 <printf@plt>
  4015f2:	0f b6 73 01          	movzbl 0x1(%rbx),%esi
  4015f6:	bf 8c 76 40 00       	mov    $0x40768c,%edi
  4015fb:	31 c0                	xor    %eax,%eax
  4015fd:	e8 fe ef ff ff       	callq  400600 <printf@plt>
  401602:	0f b6 73 02          	movzbl 0x2(%rbx),%esi
  401606:	bf 8c 76 40 00       	mov    $0x40768c,%edi
  40160b:	31 c0                	xor    %eax,%eax
  40160d:	e8 ee ef ff ff       	callq  400600 <printf@plt>
  401612:	0f b6 73 03          	movzbl 0x3(%rbx),%esi
  401616:	bf 8c 76 40 00       	mov    $0x40768c,%edi
  40161b:	31 c0                	xor    %eax,%eax
  40161d:	e8 de ef ff ff       	callq  400600 <printf@plt>
  401622:	0f b6 73 04          	movzbl 0x4(%rbx),%esi
  401626:	bf 8c 76 40 00       	mov    $0x40768c,%edi
  40162b:	31 c0                	xor    %eax,%eax
  40162d:	e8 ce ef ff ff       	callq  400600 <printf@plt>
  401632:	0f b6 73 05          	movzbl 0x5(%rbx),%esi
  401636:	bf 8c 76 40 00       	mov    $0x40768c,%edi
  40163b:	31 c0                	xor    %eax,%eax
  40163d:	e8 be ef ff ff       	callq  400600 <printf@plt>
  401642:	0f b6 73 06          	movzbl 0x6(%rbx),%esi
  401646:	bf 8c 76 40 00       	mov    $0x40768c,%edi
  40164b:	31 c0                	xor    %eax,%eax
  40164d:	e8 ae ef ff ff       	callq  400600 <printf@plt>
  401652:	0f b6 73 07          	movzbl 0x7(%rbx),%esi
  401656:	bf 8c 76 40 00       	mov    $0x40768c,%edi
  40165b:	31 c0                	xor    %eax,%eax
  40165d:	e8 9e ef ff ff       	callq  400600 <printf@plt>
  401662:	0f b6 73 08          	movzbl 0x8(%rbx),%esi
  401666:	bf 8c 76 40 00       	mov    $0x40768c,%edi
  40166b:	31 c0                	xor    %eax,%eax
  40166d:	e8 8e ef ff ff       	callq  400600 <printf@plt>
  401672:	0f b6 73 09          	movzbl 0x9(%rbx),%esi
  401676:	bf 8c 76 40 00       	mov    $0x40768c,%edi
  40167b:	31 c0                	xor    %eax,%eax
  40167d:	e8 7e ef ff ff       	callq  400600 <printf@plt>
  401682:	0f b6 73 0a          	movzbl 0xa(%rbx),%esi
  401686:	bf 8c 76 40 00       	mov    $0x40768c,%edi
  40168b:	31 c0                	xor    %eax,%eax
  40168d:	e8 6e ef ff ff       	callq  400600 <printf@plt>
  401692:	0f b6 73 0b          	movzbl 0xb(%rbx),%esi
  401696:	bf 8c 76 40 00       	mov    $0x40768c,%edi
  40169b:	31 c0                	xor    %eax,%eax
  40169d:	e8 5e ef ff ff       	callq  400600 <printf@plt>
  4016a2:	0f b6 73 0c          	movzbl 0xc(%rbx),%esi
  4016a6:	bf 8c 76 40 00       	mov    $0x40768c,%edi
  4016ab:	31 c0                	xor    %eax,%eax
  4016ad:	e8 4e ef ff ff       	callq  400600 <printf@plt>
  4016b2:	0f b6 73 0d          	movzbl 0xd(%rbx),%esi
  4016b6:	bf 8c 76 40 00       	mov    $0x40768c,%edi
  4016bb:	31 c0                	xor    %eax,%eax
  4016bd:	e8 3e ef ff ff       	callq  400600 <printf@plt>
  4016c2:	0f b6 73 0e          	movzbl 0xe(%rbx),%esi
  4016c6:	bf 8c 76 40 00       	mov    $0x40768c,%edi
  4016cb:	31 c0                	xor    %eax,%eax
  4016cd:	e8 2e ef ff ff       	callq  400600 <printf@plt>
  4016d2:	0f b6 73 0f          	movzbl 0xf(%rbx),%esi
  4016d6:	bf 8c 76 40 00       	mov    $0x40768c,%edi
  4016db:	31 c0                	xor    %eax,%eax
  4016dd:	e8 1e ef ff ff       	callq  400600 <printf@plt>
  4016e2:	bf 0a 00 00 00       	mov    $0xa,%edi
  4016e7:	5b                   	pop    %rbx
  4016e8:	e9 e3 ee ff ff       	jmpq   4005d0 <putchar@plt>
  4016ed:	0f 1f 00             	nopl   (%rax)

00000000004016f0 <flush>:
  4016f0:	89 f8                	mov    %edi,%eax
  4016f2:	83 e0 3f             	and    $0x3f,%eax
  4016f5:	48 01 f0             	add    %rsi,%rax
  4016f8:	74 13                	je     40170d <flush+0x1d>
  4016fa:	48 83 e7 c0          	and    $0xffffffffffffffc0,%rdi
  4016fe:	31 c9                	xor    %ecx,%ecx
  401700:	0f ae 3c 0f          	clflush (%rdi,%rcx,1)
  401704:	48 83 c1 40          	add    $0x40,%rcx
  401708:	48 39 c1             	cmp    %rax,%rcx
  40170b:	72 f3                	jb     401700 <flush+0x10>
  40170d:	c3                   	retq   
  40170e:	66 90                	xchg   %ax,%ax

0000000000401710 <time_access>:
  401710:	0f 01 f9             	rdtscp 
  401713:	49 89 d0             	mov    %rdx,%r8
  401716:	49 c1 e0 20          	shl    $0x20,%r8
  40171a:	49 09 c0             	or     %rax,%r8
  40171d:	80 04 37 01          	addb   $0x1,(%rdi,%rsi,1)
  401721:	0f 01 f9             	rdtscp 
  401724:	48 c1 e2 20          	shl    $0x20,%rdx
  401728:	48 09 d0             	or     %rdx,%rax
  40172b:	4c 29 c0             	sub    %r8,%rax
  40172e:	c3                   	retq   
  40172f:	90                   	nop

0000000000401730 <open_speculation_window>:
  401730:	b9 c8 00 00 00       	mov    $0xc8,%ecx
  401735:	66 2e 0f 1f 84 00 00 	nopw   %cs:0x0(%rax,%rax,1)
  40173c:	00 00 00 
  40173f:	90                   	nop
  401740:	8b 05 4a 79 20 00    	mov    0x20794a(%rip),%eax        # 609090 <spin_junk>
  401746:	83 c0 01             	add    $0x1,%eax
  401749:	0f af 05 40 79 20 00 	imul   0x207940(%rip),%eax        # 609090 <spin_junk>
  401750:	8b 35 3a 79 20 00    	mov    0x20793a(%rip),%esi        # 609090 <spin_junk>
  401756:	83 c6 ff             	add    $0xffffffff,%esi
  401759:	31 d2                	xor    %edx,%edx
  40175b:	f7 f6                	div    %esi
  40175d:	89 05 2d 79 20 00    	mov    %eax,0x20792d(%rip)        # 609090 <spin_junk>
  401763:	8b 05 27 79 20 00    	mov    0x207927(%rip),%eax        # 609090 <spin_junk>
  401769:	83 c0 01             	add    $0x1,%eax
  40176c:	0f af 05 1d 79 20 00 	imul   0x20791d(%rip),%eax        # 609090 <spin_junk>
  401773:	8b 35 17 79 20 00    	mov    0x207917(%rip),%esi        # 609090 <spin_junk>
  401779:	83 c6 ff             	add    $0xffffffff,%esi
  40177c:	31 d2                	xor    %edx,%edx
  40177e:	f7 f6                	div    %esi
  401780:	89 05 0a 79 20 00    	mov    %eax,0x20790a(%rip)        # 609090 <spin_junk>
  401786:	48 83 c1 fe          	add    $0xfffffffffffffffe,%rcx
  40178a:	75 b4                	jne    401740 <open_speculation_window+0x10>
  40178c:	c3                   	retq   
  40178d:	0f 1f 00             	nopl   (%rax)

0000000000401790 <AES_set_encrypt_key>:
  401790:	55                   	push   %rbp
  401791:	41 57                	push   %r15
  401793:	41 56                	push   %r14
  401795:	41 55                	push   %r13
  401797:	41 54                	push   %r12
  401799:	53                   	push   %rbx
  40179a:	50                   	push   %rax
  40179b:	b8 ff ff ff ff       	mov    $0xffffffff,%eax
  4017a0:	48 85 ff             	test   %rdi,%rdi
  4017a3:	0f 84 f3 01 00 00    	je     40199c <AES_set_encrypt_key+0x20c>
  4017a9:	48 89 d3             	mov    %rdx,%rbx
  4017ac:	48 85 d2             	test   %rdx,%rdx
  4017af:	0f 84 e7 01 00 00    	je     40199c <AES_set_encrypt_key+0x20c>
  4017b5:	89 f5                	mov    %esi,%ebp
  4017b7:	48 89 fe             	mov    %rdi,%rsi
  4017ba:	81 fd 80 00 00 00    	cmp    $0x80,%ebp
  4017c0:	74 19                	je     4017db <AES_set_encrypt_key+0x4b>
  4017c2:	81 fd 00 01 00 00    	cmp    $0x100,%ebp
  4017c8:	74 11                	je     4017db <AES_set_encrypt_key+0x4b>
  4017ca:	b8 fe ff ff ff       	mov    $0xfffffffe,%eax
  4017cf:	81 fd c0 00 00 00    	cmp    $0xc0,%ebp
  4017d5:	0f 85 c1 01 00 00    	jne    40199c <AES_set_encrypt_key+0x20c>
  4017db:	81 fd 80 00 00 00    	cmp    $0x80,%ebp
  4017e1:	75 12                	jne    4017f5 <AES_set_encrypt_key+0x65>
  4017e3:	c7 83 f0 00 00 00 0a 	movl   $0xa,0xf0(%rbx)
  4017ea:	00 00 00 
  4017ed:	41 bf 16 00 00 00    	mov    $0x16,%r15d
  4017f3:	eb 2a                	jmp    40181f <AES_set_encrypt_key+0x8f>
  4017f5:	81 fd c0 00 00 00    	cmp    $0xc0,%ebp
  4017fb:	75 12                	jne    40180f <AES_set_encrypt_key+0x7f>
  4017fd:	c7 83 f0 00 00 00 0c 	movl   $0xc,0xf0(%rbx)
  401804:	00 00 00 
  401807:	41 bf 1a 00 00 00    	mov    $0x1a,%r15d
  40180d:	eb 10                	jmp    40181f <AES_set_encrypt_key+0x8f>
  40180f:	c7 83 f0 00 00 00 0e 	movl   $0xe,0xf0(%rbx)
  401816:	00 00 00 
  401819:	41 bf 1e 00 00 00    	mov    $0x1e,%r15d
  40181f:	89 ea                	mov    %ebp,%edx
  401821:	c1 ea 03             	shr    $0x3,%edx
  401824:	83 e2 fc             	and    $0xfffffffc,%edx
  401827:	48 89 df             	mov    %rbx,%rdi
  40182a:	e8 01 ee ff ff       	callq  400630 <memcpy@plt>
  40182f:	41 89 ec             	mov    %ebp,%r12d
  401832:	41 c1 ec 06          	shr    $0x6,%r12d
  401836:	45 39 fc             	cmp    %r15d,%r12d
  401839:	0f 83 5b 01 00 00    	jae    40199a <AES_set_encrypt_key+0x20a>
  40183f:	42 8b 4c e3 fc       	mov    -0x4(%rbx,%r12,8),%ecx
  401844:	45 89 e5             	mov    %r12d,%r13d
  401847:	41 be 01 00 00 00    	mov    $0x1,%r14d
  40184d:	81 fd df 00 00 00    	cmp    $0xdf,%ebp
  401853:	0f 86 a9 00 00 00    	jbe    401902 <AES_set_encrypt_key+0x172>
  401859:	44 89 ed             	mov    %r13d,%ebp
  40185c:	eb 7d                	jmp    4018db <AES_set_encrypt_key+0x14b>
  40185e:	66 90                	xchg   %ax,%ax
  401860:	89 c8                	mov    %ecx,%eax
  401862:	c1 e8 18             	shr    $0x18,%eax
  401865:	89 ca                	mov    %ecx,%edx
  401867:	c1 ea 10             	shr    $0x10,%edx
  40186a:	88 6c 24 04          	mov    %ch,0x4(%rsp)
  40186e:	88 54 24 05          	mov    %dl,0x5(%rsp)
  401872:	88 44 24 06          	mov    %al,0x6(%rsp)
  401876:	88 4c 24 07          	mov    %cl,0x7(%rsp)
  40187a:	48 8d 7c 24 04       	lea    0x4(%rsp),%rdi
  40187f:	e8 8c 08 00 00       	callq  402110 <SubWord>
  401884:	8b 4c 24 04          	mov    0x4(%rsp),%ecx
  401888:	44 31 f1             	xor    %r14d,%ecx
  40188b:	89 4c 24 04          	mov    %ecx,0x4(%rsp)
  40188f:	44 89 f0             	mov    %r14d,%eax
  401892:	25 80 80 80 80       	and    $0x80808080,%eax
  401897:	89 c2                	mov    %eax,%edx
  401899:	c1 ea 07             	shr    $0x7,%edx
  40189c:	29 d0                	sub    %edx,%eax
  40189e:	25 1b 1b 1b 1b       	and    $0x1b1b1b1b,%eax
  4018a3:	45 01 f6             	add    %r14d,%r14d
  4018a6:	41 81 e6 fe fe fe fe 	and    $0xfefefefe,%r14d
  4018ad:	41 31 c6             	xor    %eax,%r14d
  4018b0:	48 8b 03             	mov    (%rbx),%rax
  4018b3:	48 89 c2             	mov    %rax,%rdx
  4018b6:	48 c1 ea 20          	shr    $0x20,%rdx
  4018ba:	31 c8                	xor    %ecx,%eax
  4018bc:	31 c2                	xor    %eax,%edx
  4018be:	89 d1                	mov    %edx,%ecx
  4018c0:	48 c1 e2 20          	shl    $0x20,%rdx
  4018c4:	48 09 d0             	or     %rdx,%rax
  4018c7:	4a 89 04 eb          	mov    %rax,(%rbx,%r13,8)
  4018cb:	83 c5 01             	add    $0x1,%ebp
  4018ce:	48 83 c3 08          	add    $0x8,%rbx
  4018d2:	41 39 ef             	cmp    %ebp,%r15d
  4018d5:	0f 84 bf 00 00 00    	je     40199a <AES_set_encrypt_key+0x20a>
  4018db:	89 4c 24 04          	mov    %ecx,0x4(%rsp)
  4018df:	89 e8                	mov    %ebp,%eax
  4018e1:	99                   	cltd   
  4018e2:	41 f7 fc             	idiv   %r12d
  4018e5:	85 d2                	test   %edx,%edx
  4018e7:	0f 84 73 ff ff ff    	je     401860 <AES_set_encrypt_key+0xd0>
  4018ed:	83 fa 02             	cmp    $0x2,%edx
  4018f0:	75 be                	jne    4018b0 <AES_set_encrypt_key+0x120>
  4018f2:	48 8d 7c 24 04       	lea    0x4(%rsp),%rdi
  4018f7:	e8 14 08 00 00       	callq  402110 <SubWord>
  4018fc:	8b 4c 24 04          	mov    0x4(%rsp),%ecx
  401900:	eb ae                	jmp    4018b0 <AES_set_encrypt_key+0x120>
  401902:	44 89 ed             	mov    %r13d,%ebp
  401905:	e9 2d 00 00 00       	jmpq   401937 <AES_set_encrypt_key+0x1a7>
  40190a:	66 0f 1f 44 00 00    	nopw   0x0(%rax,%rax,1)
  401910:	48 8b 03             	mov    (%rbx),%rax
  401913:	48 89 c2             	mov    %rax,%rdx
  401916:	48 c1 ea 20          	shr    $0x20,%rdx
  40191a:	31 c8                	xor    %ecx,%eax
  40191c:	31 c2                	xor    %eax,%edx
  40191e:	89 d1                	mov    %edx,%ecx
  401920:	48 c1 e2 20          	shl    $0x20,%rdx
  401924:	48 09 d0             	or     %rdx,%rax
  401927:	4a 89 04 eb          	mov    %rax,(%rbx,%r13,8)
  40192b:	83 c5 01             	add    $0x1,%ebp
  40192e:	48 83 c3 08          	add    $0x8,%rbx
  401932:	41 39 ef             	cmp    %ebp,%r15d
  401935:	74 63                	je     40199a <AES_set_encrypt_key+0x20a>
  401937:	89 4c 24 04          	mov    %ecx,0x4(%rsp)
  40193b:	89 e8                	mov    %ebp,%eax
  40193d:	99                   	cltd   
  40193e:	41 f7 fc             	idiv   %r12d
  401941:	85 d2                	test   %edx,%edx
  401943:	75 cb                	jne    401910 <AES_set_encrypt_key+0x180>
  401945:	89 c8                	mov    %ecx,%eax
  401947:	c1 e8 18             	shr    $0x18,%eax
  40194a:	89 ca                	mov    %ecx,%edx
  40194c:	c1 ea 10             	shr    $0x10,%edx
  40194f:	88 6c 24 04          	mov    %ch,0x4(%rsp)
  401953:	88 54 24 05          	mov    %dl,0x5(%rsp)
  401957:	88 44 24 06          	mov    %al,0x6(%rsp)
  40195b:	88 4c 24 07          	mov    %cl,0x7(%rsp)
  40195f:	48 8d 7c 24 04       	lea    0x4(%rsp),%rdi
  401964:	e8 a7 07 00 00       	callq  402110 <SubWord>
  401969:	8b 4c 24 04          	mov    0x4(%rsp),%ecx
  40196d:	44 31 f1             	xor    %r14d,%ecx
  401970:	89 4c 24 04          	mov    %ecx,0x4(%rsp)
  401974:	44 89 f0             	mov    %r14d,%eax
  401977:	25 80 80 80 80       	and    $0x80808080,%eax
  40197c:	89 c2                	mov    %eax,%edx
  40197e:	c1 ea 07             	shr    $0x7,%edx
  401981:	29 d0                	sub    %edx,%eax
  401983:	25 1b 1b 1b 1b       	and    $0x1b1b1b1b,%eax
  401988:	45 01 f6             	add    %r14d,%r14d
  40198b:	41 81 e6 fe fe fe fe 	and    $0xfefefefe,%r14d
  401992:	41 31 c6             	xor    %eax,%r14d
  401995:	e9 76 ff ff ff       	jmpq   401910 <AES_set_encrypt_key+0x180>
  40199a:	31 c0                	xor    %eax,%eax
  40199c:	48 83 c4 08          	add    $0x8,%rsp
  4019a0:	5b                   	pop    %rbx
  4019a1:	41 5c                	pop    %r12
  4019a3:	41 5d                	pop    %r13
  4019a5:	41 5e                	pop    %r14
  4019a7:	41 5f                	pop    %r15
  4019a9:	5d                   	pop    %rbp
  4019aa:	c3                   	retq   
  4019ab:	0f 1f 44 00 00       	nopl   0x0(%rax,%rax,1)

00000000004019b0 <AES_set_decrypt_key>:
  4019b0:	e9 db fd ff ff       	jmpq   401790 <AES_set_encrypt_key>
  4019b5:	66 2e 0f 1f 84 00 00 	nopw   %cs:0x0(%rax,%rax,1)
  4019bc:	00 00 00 
  4019bf:	90                   	nop

00000000004019c0 <AES_encrypt>:
  4019c0:	55                   	push   %rbp
  4019c1:	41 57                	push   %r15
  4019c3:	41 56                	push   %r14
  4019c5:	41 55                	push   %r13
  4019c7:	41 54                	push   %r12
  4019c9:	53                   	push   %rbx
  4019ca:	48 83 ec 28          	sub    $0x28,%rsp
  4019ce:	48 85 ff             	test   %rdi,%rdi
  4019d1:	0f 84 73 02 00 00    	je     401c4a <AES_encrypt+0x28a>
  4019d7:	48 85 f6             	test   %rsi,%rsi
  4019da:	0f 84 6a 02 00 00    	je     401c4a <AES_encrypt+0x28a>
  4019e0:	49 89 d6             	mov    %rdx,%r14
  4019e3:	48 85 d2             	test   %rdx,%rdx
  4019e6:	0f 84 5e 02 00 00    	je     401c4a <AES_encrypt+0x28a>
  4019ec:	48 89 74 24 20       	mov    %rsi,0x20(%rsp)
  4019f1:	49 63 86 f0 00 00 00 	movslq 0xf0(%r14),%rax
  4019f8:	48 85 c0             	test   %rax,%rax
  4019fb:	0f 10 07             	movups (%rdi),%xmm0
  4019fe:	0f 29 04 24          	movaps %xmm0,(%rsp)
  401a02:	f3 41 0f 6f 06       	movdqu (%r14),%xmm0
  401a07:	4c 8d 7c 24 08       	lea    0x8(%rsp),%r15
  401a0c:	66 0f ef 04 24       	pxor   (%rsp),%xmm0
  401a11:	66 0f 7f 04 24       	movdqa %xmm0,(%rsp)
  401a16:	bd 01 00 00 00       	mov    $0x1,%ebp
  401a1b:	48 89 44 24 18       	mov    %rax,0x18(%rsp)
  401a20:	0f 4f e8             	cmovg  %eax,%ebp
  401a23:	48 c1 e5 04          	shl    $0x4,%rbp
  401a27:	41 bd 10 00 00 00    	mov    $0x10,%r13d
  401a2d:	49 89 e4             	mov    %rsp,%r12
  401a30:	4c 89 e7             	mov    %r12,%rdi
  401a33:	e8 58 0a 00 00       	callq  402490 <SubLong>
  401a38:	4c 89 ff             	mov    %r15,%rdi
  401a3b:	e8 50 0a 00 00       	callq  402490 <SubLong>
  401a40:	0f b6 44 24 05       	movzbl 0x5(%rsp),%eax
  401a45:	0f b6 4c 24 09       	movzbl 0x9(%rsp),%ecx
  401a4a:	0f b6 54 24 0d       	movzbl 0xd(%rsp),%edx
  401a4f:	0f b6 5c 24 01       	movzbl 0x1(%rsp),%ebx
  401a54:	0f b6 74 24 02       	movzbl 0x2(%rsp),%esi
  401a59:	88 44 24 01          	mov    %al,0x1(%rsp)
  401a5d:	88 4c 24 05          	mov    %cl,0x5(%rsp)
  401a61:	88 54 24 09          	mov    %dl,0x9(%rsp)
  401a65:	88 5c 24 0d          	mov    %bl,0xd(%rsp)
  401a69:	0f b6 44 24 06       	movzbl 0x6(%rsp),%eax
  401a6e:	0f b6 4c 24 0a       	movzbl 0xa(%rsp),%ecx
  401a73:	0f b6 54 24 0e       	movzbl 0xe(%rsp),%edx
  401a78:	88 4c 24 02          	mov    %cl,0x2(%rsp)
  401a7c:	88 54 24 06          	mov    %dl,0x6(%rsp)
  401a80:	40 88 74 24 0a       	mov    %sil,0xa(%rsp)
  401a85:	88 44 24 0e          	mov    %al,0xe(%rsp)
  401a89:	0f b6 44 24 03       	movzbl 0x3(%rsp),%eax
  401a8e:	0f b6 4c 24 07       	movzbl 0x7(%rsp),%ecx
  401a93:	0f b6 54 24 0b       	movzbl 0xb(%rsp),%edx
  401a98:	0f b6 5c 24 0f       	movzbl 0xf(%rsp),%ebx
  401a9d:	88 5c 24 03          	mov    %bl,0x3(%rsp)
  401aa1:	88 44 24 07          	mov    %al,0x7(%rsp)
  401aa5:	88 4c 24 0b          	mov    %cl,0xb(%rsp)
  401aa9:	88 54 24 0f          	mov    %dl,0xf(%rsp)
  401aad:	4c 39 ed             	cmp    %r13,%rbp
  401ab0:	0f 84 10 01 00 00    	je     401bc6 <AES_encrypt+0x206>
  401ab6:	66 0f 6f 14 24       	movdqa (%rsp),%xmm2
  401abb:	66 0f 6f ca          	movdqa %xmm2,%xmm1
  401abf:	66 0f db 0d d9 5b 00 	pand   0x5bd9(%rip),%xmm1        # 4076a0 <SAMPLE_COUNT+0x158>
  401ac6:	00 
  401ac7:	66 0f 6f c1          	movdqa %xmm1,%xmm0
  401acb:	66 0f 73 d0 07       	psrlq  $0x7,%xmm0
  401ad0:	66 0f fb c8          	psubq  %xmm0,%xmm1
  401ad4:	66 0f db 0d d4 5b 00 	pand   0x5bd4(%rip),%xmm1        # 4076b0 <SAMPLE_COUNT+0x168>
  401adb:	00 
  401adc:	66 0f 6f c2          	movdqa %xmm2,%xmm0
  401ae0:	66 0f d4 c2          	paddq  %xmm2,%xmm0
  401ae4:	66 0f db 05 d4 5b 00 	pand   0x5bd4(%rip),%xmm0        # 4076c0 <SAMPLE_COUNT+0x178>
  401aeb:	00 
  401aec:	66 0f ef c1          	pxor   %xmm1,%xmm0
  401af0:	66 0f 6f ca          	movdqa %xmm2,%xmm1
  401af4:	66 0f 72 f1 10       	pslld  $0x10,%xmm1
  401af9:	66 0f 6f da          	movdqa %xmm2,%xmm3
  401afd:	66 0f 72 d3 10       	psrld  $0x10,%xmm3
  401b02:	66 0f eb d9          	por    %xmm1,%xmm3
  401b06:	66 0f ef d3          	pxor   %xmm3,%xmm2
  401b0a:	66 0f 6f ca          	movdqa %xmm2,%xmm1
  401b0e:	66 0f 71 f1 08       	psllw  $0x8,%xmm1
  401b13:	66 0f 71 d2 08       	psrlw  $0x8,%xmm2
  401b18:	66 0f eb d1          	por    %xmm1,%xmm2
  401b1c:	66 0f 6f c8          	movdqa %xmm0,%xmm1
  401b20:	66 0f 73 d1 08       	psrlq  $0x8,%xmm1
  401b25:	66 0f ef d3          	pxor   %xmm3,%xmm2
  401b29:	66 0f ef d0          	pxor   %xmm0,%xmm2
  401b2d:	66 0f ef ca          	pxor   %xmm2,%xmm1
  401b31:	66 0f 73 f0 18       	psllq  $0x18,%xmm0
  401b36:	66 0f ef c2          	pxor   %xmm2,%xmm0
  401b3a:	66 0f 6f d0          	movdqa %xmm0,%xmm2
  401b3e:	66 0f db 15 8a 5b 00 	pand   0x5b8a(%rip),%xmm2        # 4076d0 <SAMPLE_COUNT+0x188>
  401b45:	00 
  401b46:	66 0f 6f d9          	movdqa %xmm1,%xmm3
  401b4a:	66 0f db 1d 8e 5b 00 	pand   0x5b8e(%rip),%xmm3        # 4076e0 <SAMPLE_COUNT+0x198>
  401b51:	00 
  401b52:	66 0f eb da          	por    %xmm2,%xmm3
  401b56:	66 0f 6f d1          	movdqa %xmm1,%xmm2
  401b5a:	66 0f db 15 8e 5b 00 	pand   0x5b8e(%rip),%xmm2        # 4076f0 <SAMPLE_COUNT+0x1a8>
  401b61:	00 
  401b62:	66 0f 6f e1          	movdqa %xmm1,%xmm4
  401b66:	66 0f db 25 92 5b 00 	pand   0x5b92(%rip),%xmm4        # 407700 <SAMPLE_COUNT+0x1b8>
  401b6d:	00 
  401b6e:	66 0f eb e2          	por    %xmm2,%xmm4
  401b72:	66 0f eb e3          	por    %xmm3,%xmm4
  401b76:	66 0f db 05 92 5b 00 	pand   0x5b92(%rip),%xmm0        # 407710 <SAMPLE_COUNT+0x1c8>
  401b7d:	00 
  401b7e:	66 0f 6f d1          	movdqa %xmm1,%xmm2
  401b82:	66 0f db 15 96 5b 00 	pand   0x5b96(%rip),%xmm2        # 407720 <SAMPLE_COUNT+0x1d8>
  401b89:	00 
  401b8a:	66 0f eb d0          	por    %xmm0,%xmm2
  401b8e:	66 0f 6f c1          	movdqa %xmm1,%xmm0
  401b92:	66 0f db 05 96 5b 00 	pand   0x5b96(%rip),%xmm0        # 407730 <SAMPLE_COUNT+0x1e8>
  401b99:	00 
  401b9a:	66 0f eb c2          	por    %xmm2,%xmm0
  401b9e:	66 0f eb c4          	por    %xmm4,%xmm0
  401ba2:	66 0f db 0d 96 5b 00 	pand   0x5b96(%rip),%xmm1        # 407740 <SAMPLE_COUNT+0x1f8>
  401ba9:	00 
  401baa:	66 0f eb c8          	por    %xmm0,%xmm1
  401bae:	f3 43 0f 6f 04 2e    	movdqu (%r14,%r13,1),%xmm0
  401bb4:	66 0f ef c1          	pxor   %xmm1,%xmm0
  401bb8:	66 0f 7f 04 24       	movdqa %xmm0,(%rsp)
  401bbd:	49 83 c5 10          	add    $0x10,%r13
  401bc1:	e9 6a fe ff ff       	jmpq   401a30 <AES_encrypt+0x70>
  401bc6:	48 8b 44 24 18       	mov    0x18(%rsp),%rax
  401bcb:	48 c1 e0 04          	shl    $0x4,%rax
  401bcf:	41 0f 10 04 06       	movups (%r14,%rax,1),%xmm0
  401bd4:	0f 57 04 24          	xorps  (%rsp),%xmm0
  401bd8:	0f 29 04 24          	movaps %xmm0,(%rsp)
  401bdc:	0f b7 04 24          	movzwl (%rsp),%eax
  401be0:	48 8b 4c 24 20       	mov    0x20(%rsp),%rcx
  401be5:	66 89 01             	mov    %ax,(%rcx)
  401be8:	8a 44 24 02          	mov    0x2(%rsp),%al
  401bec:	88 41 02             	mov    %al,0x2(%rcx)
  401bef:	8a 44 24 03          	mov    0x3(%rsp),%al
  401bf3:	88 41 03             	mov    %al,0x3(%rcx)
  401bf6:	0f b7 44 24 04       	movzwl 0x4(%rsp),%eax
  401bfb:	66 89 41 04          	mov    %ax,0x4(%rcx)
  401bff:	8a 44 24 06          	mov    0x6(%rsp),%al
  401c03:	88 41 06             	mov    %al,0x6(%rcx)
  401c06:	8a 44 24 07          	mov    0x7(%rsp),%al
  401c0a:	88 41 07             	mov    %al,0x7(%rcx)
  401c0d:	0f b7 44 24 08       	movzwl 0x8(%rsp),%eax
  401c12:	66 89 41 08          	mov    %ax,0x8(%rcx)
  401c16:	8a 44 24 0a          	mov    0xa(%rsp),%al
  401c1a:	88 41 0a             	mov    %al,0xa(%rcx)
  401c1d:	8a 44 24 0b          	mov    0xb(%rsp),%al
  401c21:	88 41 0b             	mov    %al,0xb(%rcx)
  401c24:	0f b7 44 24 0c       	movzwl 0xc(%rsp),%eax
  401c29:	66 89 41 0c          	mov    %ax,0xc(%rcx)
  401c2d:	8a 44 24 0e          	mov    0xe(%rsp),%al
  401c31:	88 41 0e             	mov    %al,0xe(%rcx)
  401c34:	8a 44 24 0f          	mov    0xf(%rsp),%al
  401c38:	88 41 0f             	mov    %al,0xf(%rcx)
  401c3b:	48 83 c4 28          	add    $0x28,%rsp
  401c3f:	5b                   	pop    %rbx
  401c40:	41 5c                	pop    %r12
  401c42:	41 5d                	pop    %r13
  401c44:	41 5e                	pop    %r14
  401c46:	41 5f                	pop    %r15
  401c48:	5d                   	pop    %rbp
  401c49:	c3                   	retq   
  401c4a:	bf 50 77 40 00       	mov    $0x407750,%edi
  401c4f:	be 61 77 40 00       	mov    $0x407761,%esi
  401c54:	b9 6c 77 40 00       	mov    $0x40776c,%ecx
  401c59:	ba a5 02 00 00       	mov    $0x2a5,%edx
  401c5e:	e8 ad e9 ff ff       	callq  400610 <__assert_fail@plt>
  401c63:	66 2e 0f 1f 84 00 00 	nopw   %cs:0x0(%rax,%rax,1)
  401c6a:	00 00 00 
  401c6d:	0f 1f 00             	nopl   (%rax)

0000000000401c70 <AES_decrypt>:
  401c70:	55                   	push   %rbp
  401c71:	41 57                	push   %r15
  401c73:	41 56                	push   %r14
  401c75:	41 55                	push   %r13
  401c77:	41 54                	push   %r12
  401c79:	53                   	push   %rbx
  401c7a:	48 83 ec 38          	sub    $0x38,%rsp
  401c7e:	48 89 54 24 18       	mov    %rdx,0x18(%rsp)
  401c83:	48 85 ff             	test   %rdi,%rdi
  401c86:	0f 84 67 04 00 00    	je     4020f3 <AES_decrypt+0x483>
  401c8c:	48 85 f6             	test   %rsi,%rsi
  401c8f:	0f 84 5e 04 00 00    	je     4020f3 <AES_decrypt+0x483>
  401c95:	48 83 7c 24 18 00    	cmpq   $0x0,0x18(%rsp)
  401c9b:	0f 84 52 04 00 00    	je     4020f3 <AES_decrypt+0x483>
  401ca1:	48 89 74 24 28       	mov    %rsi,0x28(%rsp)
  401ca6:	48 8b 4c 24 18       	mov    0x18(%rsp),%rcx
  401cab:	48 63 b1 f0 00 00 00 	movslq 0xf0(%rcx),%rsi
  401cb2:	0f 10 07             	movups (%rdi),%xmm0
  401cb5:	0f 29 04 24          	movaps %xmm0,(%rsp)
  401cb9:	48 89 f0             	mov    %rsi,%rax
  401cbc:	48 c1 e0 04          	shl    $0x4,%rax
  401cc0:	4c 8b 2c 24          	mov    (%rsp),%r13
  401cc4:	4c 33 2c 01          	xor    (%rcx,%rax,1),%r13
  401cc8:	48 8b 54 24 08       	mov    0x8(%rsp),%rdx
  401ccd:	4c 89 2c 24          	mov    %r13,(%rsp)
  401cd1:	48 33 54 01 08       	xor    0x8(%rcx,%rax,1),%rdx
  401cd6:	48 89 74 24 20       	mov    %rsi,0x20(%rsp)
  401cdb:	44 8d 34 36          	lea    (%rsi,%rsi,1),%r14d
  401cdf:	41 83 c6 fe          	add    $0xfffffffe,%r14d
  401ce3:	49 bf 80 80 80 80 80 	movabs $0x8080808080808080,%r15
  401cea:	80 80 80 
  401ced:	0f 1f 00             	nopl   (%rax)
  401cf0:	4c 89 ee             	mov    %r13,%rsi
  401cf3:	48 c1 ee 28          	shr    $0x28,%rsi
  401cf7:	4c 89 ef             	mov    %r13,%rdi
  401cfa:	48 c1 ef 10          	shr    $0x10,%rdi
  401cfe:	4c 89 e8             	mov    %r13,%rax
  401d01:	48 c1 e8 30          	shr    $0x30,%rax
  401d05:	4d 89 e8             	mov    %r13,%r8
  401d08:	49 c1 e8 18          	shr    $0x18,%r8
  401d0c:	4c 89 eb             	mov    %r13,%rbx
  401d0f:	4c 89 ed             	mov    %r13,%rbp
  401d12:	48 c1 ed 38          	shr    $0x38,%rbp
  401d16:	48 89 54 24 08       	mov    %rdx,0x8(%rsp)
  401d1b:	48 89 d1             	mov    %rdx,%rcx
  401d1e:	48 c1 e9 28          	shr    $0x28,%rcx
  401d22:	88 4c 24 01          	mov    %cl,0x1(%rsp)
  401d26:	88 7c 24 05          	mov    %bh,0x5(%rsp)
  401d2a:	40 88 74 24 09       	mov    %sil,0x9(%rsp)
  401d2f:	88 74 24 0d          	mov    %dh,0xd(%rsp)
  401d33:	48 89 d1             	mov    %rdx,%rcx
  401d36:	48 c1 e9 10          	shr    $0x10,%rcx
  401d3a:	48 89 d6             	mov    %rdx,%rsi
  401d3d:	48 c1 ee 30          	shr    $0x30,%rsi
  401d41:	88 4c 24 02          	mov    %cl,0x2(%rsp)
  401d45:	40 88 74 24 06       	mov    %sil,0x6(%rsp)
  401d4a:	40 88 7c 24 0a       	mov    %dil,0xa(%rsp)
  401d4f:	88 44 24 0e          	mov    %al,0xe(%rsp)
  401d53:	48 89 d0             	mov    %rdx,%rax
  401d56:	48 c1 e8 18          	shr    $0x18,%rax
  401d5a:	48 c1 ea 38          	shr    $0x38,%rdx
  401d5e:	40 88 6c 24 03       	mov    %bpl,0x3(%rsp)
  401d63:	88 44 24 07          	mov    %al,0x7(%rsp)
  401d67:	88 54 24 0b          	mov    %dl,0xb(%rsp)
  401d6b:	44 88 44 24 0f       	mov    %r8b,0xf(%rsp)
  401d70:	48 89 e7             	mov    %rsp,%rdi
  401d73:	e8 18 0c 00 00       	callq  402990 <InvSubLong>
  401d78:	48 8d 7c 24 08       	lea    0x8(%rsp),%rdi
  401d7d:	e8 0e 0c 00 00       	callq  402990 <InvSubLong>
  401d82:	48 83 7c 24 20 02    	cmpq   $0x2,0x20(%rsp)
  401d88:	0f 8c 3a 03 00 00    	jl     4020c8 <AES_decrypt+0x458>
  401d8e:	4d 63 f6             	movslq %r14d,%r14
  401d91:	48 8b 0c 24          	mov    (%rsp),%rcx
  401d95:	4c 8b 4c 24 18       	mov    0x18(%rsp),%r9
  401d9a:	4b 33 0c f1          	xor    (%r9,%r14,8),%rcx
  401d9e:	4d 89 f5             	mov    %r14,%r13
  401da1:	4c 89 74 24 30       	mov    %r14,0x30(%rsp)
  401da6:	48 89 ca             	mov    %rcx,%rdx
  401da9:	48 c1 ea 10          	shr    $0x10,%rdx
  401dad:	48 b8 ff ff 00 00 ff 	movabs $0xffff0000ffff,%rax
  401db4:	ff 00 00 
  401db7:	48 21 c2             	and    %rax,%rdx
  401dba:	48 89 c5             	mov    %rax,%rbp
  401dbd:	48 89 c8             	mov    %rcx,%rax
  401dc0:	48 c1 e0 10          	shl    $0x10,%rax
  401dc4:	49 ba 00 00 ff ff 00 	movabs $0xffff0000ffff0000,%r10
  401dcb:	00 ff ff 
  401dce:	4c 21 d0             	and    %r10,%rax
  401dd1:	4d 89 d4             	mov    %r10,%r12
  401dd4:	48 09 d0             	or     %rdx,%rax
  401dd7:	48 89 c6             	mov    %rax,%rsi
  401dda:	48 31 ce             	xor    %rcx,%rsi
  401ddd:	48 89 f2             	mov    %rsi,%rdx
  401de0:	48 c1 ea 08          	shr    $0x8,%rdx
  401de4:	48 bf ff 00 ff 00 ff 	movabs $0xff00ff00ff00ff,%rdi
  401deb:	00 ff 00 
  401dee:	48 21 fa             	and    %rdi,%rdx
  401df1:	48 c1 e6 08          	shl    $0x8,%rsi
  401df5:	49 bb 00 ff 00 ff 00 	movabs $0xff00ff00ff00ff00,%r11
  401dfc:	ff 00 ff 
  401dff:	4c 21 de             	and    %r11,%rsi
  401e02:	48 09 d6             	or     %rdx,%rsi
  401e05:	48 89 cf             	mov    %rcx,%rdi
  401e08:	4c 21 ff             	and    %r15,%rdi
  401e0b:	48 89 fa             	mov    %rdi,%rdx
  401e0e:	48 c1 ea 07          	shr    $0x7,%rdx
  401e12:	48 29 d7             	sub    %rdx,%rdi
  401e15:	49 ba 1b 1b 1b 1b 1b 	movabs $0x1b1b1b1b1b1b1b1b,%r10
  401e1c:	1b 1b 1b 
  401e1f:	4c 21 d7             	and    %r10,%rdi
  401e22:	48 01 c9             	add    %rcx,%rcx
  401e25:	48 89 ca             	mov    %rcx,%rdx
  401e28:	49 be fe fe fe fe fe 	movabs $0xfefefefefefefefe,%r14
  401e2f:	fe fe fe 
  401e32:	4c 21 f2             	and    %r14,%rdx
  401e35:	48 31 fa             	xor    %rdi,%rdx
  401e38:	48 89 d3             	mov    %rdx,%rbx
  401e3b:	48 c1 eb 08          	shr    $0x8,%rbx
  401e3f:	48 31 d0             	xor    %rdx,%rax
  401e42:	48 31 f0             	xor    %rsi,%rax
  401e45:	49 89 c0             	mov    %rax,%r8
  401e48:	49 31 d8             	xor    %rbx,%r8
  401e4b:	49 bb 00 00 00 00 00 	movabs $0xff000000000000,%r11
  401e52:	00 ff 00 
  401e55:	4c 21 db             	and    %r11,%rbx
  401e58:	4c 21 f9             	and    %r15,%rcx
  401e5b:	48 89 ce             	mov    %rcx,%rsi
  401e5e:	48 c1 ee 07          	shr    $0x7,%rsi
  401e62:	48 29 f1             	sub    %rsi,%rcx
  401e65:	4c 21 d1             	and    %r10,%rcx
  401e68:	48 8d 34 12          	lea    (%rdx,%rdx,1),%rsi
  401e6c:	4c 21 f6             	and    %r14,%rsi
  401e6f:	48 31 ce             	xor    %rcx,%rsi
  401e72:	48 89 f1             	mov    %rsi,%rcx
  401e75:	48 c1 e9 10          	shr    $0x10,%rcx
  401e79:	48 21 e9             	and    %rbp,%rcx
  401e7c:	48 89 f5             	mov    %rsi,%rbp
  401e7f:	48 c1 e5 10          	shl    $0x10,%rbp
  401e83:	4c 21 e5             	and    %r12,%rbp
  401e86:	48 09 cd             	or     %rcx,%rbp
  401e89:	48 31 f5             	xor    %rsi,%rbp
  401e8c:	48 c1 e2 18          	shl    $0x18,%rdx
  401e90:	48 31 c2             	xor    %rax,%rdx
  401e93:	48 89 d1             	mov    %rdx,%rcx
  401e96:	49 bc 00 00 00 00 00 	movabs $0xff00000000000000,%r12
  401e9d:	00 00 ff 
  401ea0:	4c 21 e1             	and    %r12,%rcx
  401ea3:	4c 21 d8             	and    %r11,%rax
  401ea6:	48 31 d8             	xor    %rbx,%rax
  401ea9:	48 09 c8             	or     %rcx,%rax
  401eac:	4c 89 c6             	mov    %r8,%rsi
  401eaf:	44 89 c7             	mov    %r8d,%edi
  401eb2:	4c 89 c1             	mov    %r8,%rcx
  401eb5:	49 bc 00 00 00 00 00 	movabs $0xff0000000000,%r12
  401ebc:	ff 00 00 
  401ebf:	4c 21 e1             	and    %r12,%rcx
  401ec2:	49 bc 00 00 00 00 ff 	movabs $0xff00000000,%r12
  401ec9:	00 00 00 
  401ecc:	4c 21 e6             	and    %r12,%rsi
  401ecf:	48 09 ce             	or     %rcx,%rsi
  401ed2:	44 89 c3             	mov    %r8d,%ebx
  401ed5:	48 09 c6             	or     %rax,%rsi
  401ed8:	48 8b 4c 24 08       	mov    0x8(%rsp),%rcx
  401edd:	4b 33 4c e9 08       	xor    0x8(%r9,%r13,8),%rcx
  401ee2:	45 0f b6 e8          	movzbl %r8b,%r13d
  401ee6:	48 89 4c 24 08       	mov    %rcx,0x8(%rsp)
  401eeb:	81 e2 00 00 00 ff    	and    $0xff000000,%edx
  401ef1:	81 e7 00 00 ff 00    	and    $0xff0000,%edi
  401ef7:	48 09 d7             	or     %rdx,%rdi
  401efa:	81 e3 00 ff 00 00    	and    $0xff00,%ebx
  401f00:	48 09 fb             	or     %rdi,%rbx
  401f03:	48 09 f3             	or     %rsi,%rbx
  401f06:	49 09 dd             	or     %rbx,%r13
  401f09:	48 89 e8             	mov    %rbp,%rax
  401f0c:	48 01 e8             	add    %rbp,%rax
  401f0f:	49 31 ed             	xor    %rbp,%r13
  401f12:	4c 21 fd             	and    %r15,%rbp
  401f15:	48 89 ea             	mov    %rbp,%rdx
  401f18:	48 c1 ea 07          	shr    $0x7,%rdx
  401f1c:	48 29 d5             	sub    %rdx,%rbp
  401f1f:	4c 89 d3             	mov    %r10,%rbx
  401f22:	4c 21 d5             	and    %r10,%rbp
  401f25:	4c 21 f0             	and    %r14,%rax
  401f28:	48 31 e8             	xor    %rbp,%rax
  401f2b:	48 89 c2             	mov    %rax,%rdx
  401f2e:	49 31 c5             	xor    %rax,%r13
  401f31:	48 c1 e8 08          	shr    $0x8,%rax
  401f35:	48 bf ff 00 ff 00 ff 	movabs $0xff00ff00ff00ff,%rdi
  401f3c:	00 ff 00 
  401f3f:	48 21 f8             	and    %rdi,%rax
  401f42:	48 c1 e2 08          	shl    $0x8,%rdx
  401f46:	49 b9 00 ff 00 ff 00 	movabs $0xff00ff00ff00ff00,%r9
  401f4d:	ff 00 ff 
  401f50:	4c 21 ca             	and    %r9,%rdx
  401f53:	48 09 c2             	or     %rax,%rdx
  401f56:	49 31 d5             	xor    %rdx,%r13
  401f59:	48 89 c8             	mov    %rcx,%rax
  401f5c:	48 c1 e8 10          	shr    $0x10,%rax
  401f60:	49 ba ff ff 00 00 ff 	movabs $0xffff0000ffff,%r10
  401f67:	ff 00 00 
  401f6a:	4c 21 d0             	and    %r10,%rax
  401f6d:	48 89 ca             	mov    %rcx,%rdx
  401f70:	48 c1 e2 10          	shl    $0x10,%rdx
  401f74:	48 bd 00 00 ff ff 00 	movabs $0xffff0000ffff0000,%rbp
  401f7b:	00 ff ff 
  401f7e:	48 21 ea             	and    %rbp,%rdx
  401f81:	48 09 c2             	or     %rax,%rdx
  401f84:	48 89 d0             	mov    %rdx,%rax
  401f87:	48 31 c8             	xor    %rcx,%rax
  401f8a:	48 89 c6             	mov    %rax,%rsi
  401f8d:	48 c1 ee 08          	shr    $0x8,%rsi
  401f91:	48 21 fe             	and    %rdi,%rsi
  401f94:	48 c1 e0 08          	shl    $0x8,%rax
  401f98:	4c 21 c8             	and    %r9,%rax
  401f9b:	48 09 f0             	or     %rsi,%rax
  401f9e:	48 89 ce             	mov    %rcx,%rsi
  401fa1:	4c 21 fe             	and    %r15,%rsi
  401fa4:	48 89 f7             	mov    %rsi,%rdi
  401fa7:	48 c1 ef 07          	shr    $0x7,%rdi
  401fab:	48 29 fe             	sub    %rdi,%rsi
  401fae:	48 21 de             	and    %rbx,%rsi
  401fb1:	49 89 d8             	mov    %rbx,%r8
  401fb4:	48 01 c9             	add    %rcx,%rcx
  401fb7:	48 89 cf             	mov    %rcx,%rdi
  401fba:	4c 21 f7             	and    %r14,%rdi
  401fbd:	48 31 f7             	xor    %rsi,%rdi
  401fc0:	48 89 fb             	mov    %rdi,%rbx
  401fc3:	48 c1 eb 08          	shr    $0x8,%rbx
  401fc7:	48 31 fa             	xor    %rdi,%rdx
  401fca:	48 31 c2             	xor    %rax,%rdx
  401fcd:	4c 21 f9             	and    %r15,%rcx
  401fd0:	48 89 c8             	mov    %rcx,%rax
  401fd3:	48 c1 e8 07          	shr    $0x7,%rax
  401fd7:	48 29 c1             	sub    %rax,%rcx
  401fda:	4c 21 c1             	and    %r8,%rcx
  401fdd:	48 8d 04 3f          	lea    (%rdi,%rdi,1),%rax
  401fe1:	4c 21 f0             	and    %r14,%rax
  401fe4:	48 31 c8             	xor    %rcx,%rax
  401fe7:	48 89 c1             	mov    %rax,%rcx
  401fea:	48 c1 e9 10          	shr    $0x10,%rcx
  401fee:	4c 21 d1             	and    %r10,%rcx
  401ff1:	48 89 c6             	mov    %rax,%rsi
  401ff4:	48 c1 e6 10          	shl    $0x10,%rsi
  401ff8:	48 21 ee             	and    %rbp,%rsi
  401ffb:	48 09 ce             	or     %rcx,%rsi
  401ffe:	48 89 d5             	mov    %rdx,%rbp
  402001:	48 31 dd             	xor    %rbx,%rbp
  402004:	4c 21 db             	and    %r11,%rbx
  402007:	48 31 c6             	xor    %rax,%rsi
  40200a:	48 c1 e7 18          	shl    $0x18,%rdi
  40200e:	48 31 d7             	xor    %rdx,%rdi
  402011:	48 89 f8             	mov    %rdi,%rax
  402014:	48 b9 00 00 00 00 00 	movabs $0xff00000000000000,%rcx
  40201b:	00 00 ff 
  40201e:	48 21 c8             	and    %rcx,%rax
  402021:	4c 21 da             	and    %r11,%rdx
  402024:	48 31 da             	xor    %rbx,%rdx
  402027:	48 09 c2             	or     %rax,%rdx
  40202a:	48 89 e8             	mov    %rbp,%rax
  40202d:	48 89 e9             	mov    %rbp,%rcx
  402030:	48 bb 00 00 00 00 00 	movabs $0xff0000000000,%rbx
  402037:	ff 00 00 
  40203a:	48 21 d9             	and    %rbx,%rcx
  40203d:	4c 21 e0             	and    %r12,%rax
  402040:	48 09 c8             	or     %rcx,%rax
  402043:	48 09 d0             	or     %rdx,%rax
  402046:	89 e9                	mov    %ebp,%ecx
  402048:	81 e7 00 00 00 ff    	and    $0xff000000,%edi
  40204e:	81 e1 00 00 ff 00    	and    $0xff0000,%ecx
  402054:	48 09 f9             	or     %rdi,%rcx
  402057:	89 ef                	mov    %ebp,%edi
  402059:	81 e7 00 ff 00 00    	and    $0xff00,%edi
  40205f:	48 09 cf             	or     %rcx,%rdi
  402062:	40 0f b6 d5          	movzbl %bpl,%edx
  402066:	48 09 c7             	or     %rax,%rdi
  402069:	48 09 fa             	or     %rdi,%rdx
  40206c:	48 89 f0             	mov    %rsi,%rax
  40206f:	4c 21 f8             	and    %r15,%rax
  402072:	48 89 c1             	mov    %rax,%rcx
  402075:	48 c1 e9 07          	shr    $0x7,%rcx
  402079:	48 29 c8             	sub    %rcx,%rax
  40207c:	48 31 f2             	xor    %rsi,%rdx
  40207f:	48 8d 0c 36          	lea    (%rsi,%rsi,1),%rcx
  402083:	4c 21 c0             	and    %r8,%rax
  402086:	4c 21 f1             	and    %r14,%rcx
  402089:	48 31 c1             	xor    %rax,%rcx
  40208c:	48 89 c8             	mov    %rcx,%rax
  40208f:	48 31 ca             	xor    %rcx,%rdx
  402092:	48 c1 e9 08          	shr    $0x8,%rcx
  402096:	48 be ff 00 ff 00 ff 	movabs $0xff00ff00ff00ff,%rsi
  40209d:	00 ff 00 
  4020a0:	48 21 f1             	and    %rsi,%rcx
  4020a3:	48 c1 e0 08          	shl    $0x8,%rax
  4020a7:	4c 21 c8             	and    %r9,%rax
  4020aa:	48 09 c8             	or     %rcx,%rax
  4020ad:	48 31 c2             	xor    %rax,%rdx
  4020b0:	48 83 44 24 20 ff    	addq   $0xffffffffffffffff,0x20(%rsp)
  4020b6:	4c 89 2c 24          	mov    %r13,(%rsp)
  4020ba:	4c 8b 74 24 30       	mov    0x30(%rsp),%r14
  4020bf:	41 83 c6 fe          	add    $0xfffffffe,%r14d
  4020c3:	e9 28 fc ff ff       	jmpq   401cf0 <AES_decrypt+0x80>
  4020c8:	48 8b 44 24 18       	mov    0x18(%rsp),%rax
  4020cd:	0f 10 00             	movups (%rax),%xmm0
  4020d0:	0f 57 04 24          	xorps  (%rsp),%xmm0
  4020d4:	0f 29 04 24          	movaps %xmm0,(%rsp)
  4020d8:	0f 28 04 24          	movaps (%rsp),%xmm0
  4020dc:	48 8b 44 24 28       	mov    0x28(%rsp),%rax
  4020e1:	0f 11 00             	movups %xmm0,(%rax)
  4020e4:	48 83 c4 38          	add    $0x38,%rsp
  4020e8:	5b                   	pop    %rbx
  4020e9:	41 5c                	pop    %r12
  4020eb:	41 5d                	pop    %r13
  4020ed:	41 5e                	pop    %r14
  4020ef:	41 5f                	pop    %r15
  4020f1:	5d                   	pop    %rbp
  4020f2:	c3                   	retq   
  4020f3:	bf 50 77 40 00       	mov    $0x407750,%edi
  4020f8:	be 61 77 40 00       	mov    $0x407761,%esi
  4020fd:	b9 b6 77 40 00       	mov    $0x4077b6,%ecx
  402102:	ba b4 02 00 00       	mov    $0x2b4,%edx
  402107:	e8 04 e5 ff ff       	callq  400610 <__assert_fail@plt>
  40210c:	0f 1f 40 00          	nopl   0x0(%rax)

0000000000402110 <SubWord>:
  402110:	44 8b 07             	mov    (%rdi),%r8d
  402113:	44 89 c2             	mov    %r8d,%edx
  402116:	d1 ea                	shr    %edx
  402118:	44 89 c1             	mov    %r8d,%ecx
  40211b:	81 e1 dd dd dd dd    	and    $0xdddddddd,%ecx
  402121:	81 e2 57 57 57 57    	and    $0x57575757,%edx
  402127:	31 ca                	xor    %ecx,%edx
  402129:	44 89 c0             	mov    %r8d,%eax
  40212c:	c1 e8 02             	shr    $0x2,%eax
  40212f:	89 c6                	mov    %eax,%esi
  402131:	81 e6 3e 3f 3f 3f    	and    $0x3f3f3f3e,%esi
  402137:	44 89 c1             	mov    %r8d,%ecx
  40213a:	c1 e1 06             	shl    $0x6,%ecx
  40213d:	81 e1 80 80 80 80    	and    $0x80808080,%ecx
  402143:	09 f1                	or     %esi,%ecx
  402145:	25 1c 1c 1c 1c       	and    $0x1c1c1c1c,%eax
  40214a:	31 d0                	xor    %edx,%eax
  40214c:	d1 e9                	shr    %ecx
  40214e:	89 ca                	mov    %ecx,%edx
  402150:	81 e2 5e 5e 5e 5e    	and    $0x5e5e5e5e,%edx
  402156:	44 89 c6             	mov    %r8d,%esi
  402159:	c1 e6 05             	shl    $0x5,%esi
  40215c:	81 e6 80 80 80 80    	and    $0x80808080,%esi
  402162:	09 d6                	or     %edx,%esi
  402164:	81 e1 4a 4a 4a 4a    	and    $0x4a4a4a4a,%ecx
  40216a:	31 c1                	xor    %eax,%ecx
  40216c:	d1 ee                	shr    %esi
  40216e:	44 89 c2             	mov    %r8d,%edx
  402171:	c1 e2 04             	shl    $0x4,%edx
  402174:	81 e2 80 80 80 80    	and    $0x80808080,%edx
  40217a:	09 f2                	or     %esi,%edx
  40217c:	81 e6 42 42 42 42    	and    $0x42424242,%esi
  402182:	31 ce                	xor    %ecx,%esi
  402184:	89 d0                	mov    %edx,%eax
  402186:	d1 e8                	shr    %eax
  402188:	89 c1                	mov    %eax,%ecx
  40218a:	81 e1 40 40 40 40    	and    $0x40404040,%ecx
  402190:	41 81 e0 10 10 10 f0 	and    $0xf0101010,%r8d
  402197:	42 8d 0c c1          	lea    (%rcx,%r8,8),%ecx
  40219b:	25 64 64 64 64       	and    $0x64646464,%eax
  4021a0:	31 f0                	xor    %esi,%eax
  4021a2:	d1 e9                	shr    %ecx
  4021a4:	c1 e2 06             	shl    $0x6,%edx
  4021a7:	81 e2 80 80 80 80    	and    $0x80808080,%edx
  4021ad:	09 ca                	or     %ecx,%edx
  4021af:	31 c2                	xor    %eax,%edx
  4021b1:	41 89 d2             	mov    %edx,%r10d
  4021b4:	41 c1 ea 04          	shr    $0x4,%r10d
  4021b8:	41 81 e2 0f 0f 0f 0f 	and    $0xf0f0f0f,%r10d
  4021bf:	41 31 d2             	xor    %edx,%r10d
  4021c2:	89 d1                	mov    %edx,%ecx
  4021c4:	c1 e9 02             	shr    $0x2,%ecx
  4021c7:	81 e1 33 33 33 33    	and    $0x33333333,%ecx
  4021cd:	89 d6                	mov    %edx,%esi
  4021cf:	81 e6 33 33 33 f3    	and    $0xf3333333,%esi
  4021d5:	8d 0c b1             	lea    (%rcx,%rsi,4),%ecx
  4021d8:	44 89 d0             	mov    %r10d,%eax
  4021db:	21 d0                	and    %edx,%eax
  4021dd:	89 c6                	mov    %eax,%esi
  4021df:	d1 ee                	shr    %esi
  4021e1:	81 e6 55 55 55 55    	and    $0x55555555,%esi
  4021e7:	31 c6                	xor    %eax,%esi
  4021e9:	8d 04 12             	lea    (%rdx,%rdx,1),%eax
  4021ec:	44 21 d0             	and    %r10d,%eax
  4021ef:	47 8d 04 12          	lea    (%r10,%r10,1),%r8d
  4021f3:	44 21 c2             	and    %r8d,%edx
  4021f6:	31 c2                	xor    %eax,%edx
  4021f8:	81 e2 aa aa aa aa    	and    $0xaaaaaaaa,%edx
  4021fe:	31 f2                	xor    %esi,%edx
  402200:	89 c8                	mov    %ecx,%eax
  402202:	44 21 d0             	and    %r10d,%eax
  402205:	89 c6                	mov    %eax,%esi
  402207:	d1 ee                	shr    %esi
  402209:	81 e6 55 55 55 55    	and    $0x55555555,%esi
  40220f:	31 c6                	xor    %eax,%esi
  402211:	8d 04 09             	lea    (%rcx,%rcx,1),%eax
  402214:	44 21 d0             	and    %r10d,%eax
  402217:	44 21 c1             	and    %r8d,%ecx
  40221a:	31 c1                	xor    %eax,%ecx
  40221c:	81 e1 aa aa aa aa    	and    $0xaaaaaaaa,%ecx
  402222:	31 f1                	xor    %esi,%ecx
  402224:	89 d6                	mov    %edx,%esi
  402226:	d1 ee                	shr    %esi
  402228:	81 e6 22 22 22 22    	and    $0x22222222,%esi
  40222e:	31 d6                	xor    %edx,%esi
  402230:	89 d0                	mov    %edx,%eax
  402232:	c1 e8 02             	shr    $0x2,%eax
  402235:	8d 14 8d 00 00 00 00 	lea    0x0(,%rcx,4),%edx
  40223c:	31 ca                	xor    %ecx,%edx
  40223e:	81 e2 cc cc cc cc    	and    $0xcccccccc,%edx
  402244:	25 22 22 22 22       	and    $0x22222222,%eax
  402249:	89 c1                	mov    %eax,%ecx
  40224b:	d1 e9                	shr    %ecx
  40224d:	09 c1                	or     %eax,%ecx
  40224f:	31 d6                	xor    %edx,%esi
  402251:	31 ce                	xor    %ecx,%esi
  402253:	89 f0                	mov    %esi,%eax
  402255:	25 a0 a0 a0 a0       	and    $0xa0a0a0a0,%eax
  40225a:	89 c1                	mov    %eax,%ecx
  40225c:	d1 e9                	shr    %ecx
  40225e:	09 c1                	or     %eax,%ecx
  402260:	8d 04 36             	lea    (%rsi,%rsi,1),%eax
  402263:	25 a0 a0 a0 a0       	and    $0xa0a0a0a0,%eax
  402268:	31 c8                	xor    %ecx,%eax
  40226a:	89 c1                	mov    %eax,%ecx
  40226c:	81 e1 c0 c0 c0 c0    	and    $0xc0c0c0c0,%ecx
  402272:	89 ca                	mov    %ecx,%edx
  402274:	c1 ea 02             	shr    $0x2,%edx
  402277:	c1 e0 02             	shl    $0x2,%eax
  40227a:	25 c0 c0 c0 c0       	and    $0xc0c0c0c0,%eax
  40227f:	31 c8                	xor    %ecx,%eax
  402281:	81 e2 20 20 20 20    	and    $0x20202020,%edx
  402287:	41 89 d1             	mov    %edx,%r9d
  40228a:	41 d1 e9             	shr    %r9d
  40228d:	41 09 d1             	or     %edx,%r9d
  402290:	d1 e9                	shr    %ecx
  402292:	81 e1 20 20 20 20    	and    $0x20202020,%ecx
  402298:	44 31 c9             	xor    %r9d,%ecx
  40229b:	09 c1                	or     %eax,%ecx
  40229d:	c1 e9 04             	shr    $0x4,%ecx
  4022a0:	81 e6 0f 0f 0f 0f    	and    $0xf0f0f0f,%esi
  4022a6:	31 ce                	xor    %ecx,%esi
  4022a8:	41 89 f3             	mov    %esi,%r11d
  4022ab:	41 c1 eb 02          	shr    $0x2,%r11d
  4022af:	41 81 e3 03 03 03 03 	and    $0x3030303,%r11d
  4022b6:	41 31 f3             	xor    %esi,%r11d
  4022b9:	44 89 d8             	mov    %r11d,%eax
  4022bc:	21 f0                	and    %esi,%eax
  4022be:	89 c1                	mov    %eax,%ecx
  4022c0:	d1 e9                	shr    %ecx
  4022c2:	81 e1 05 05 05 05    	and    $0x5050505,%ecx
  4022c8:	31 c1                	xor    %eax,%ecx
  4022ca:	8d 04 36             	lea    (%rsi,%rsi,1),%eax
  4022cd:	44 21 d8             	and    %r11d,%eax
  4022d0:	47 8d 0c 1b          	lea    (%r11,%r11,1),%r9d
  4022d4:	44 21 ce             	and    %r9d,%esi
  4022d7:	31 c6                	xor    %eax,%esi
  4022d9:	81 e6 0a 0a 0a 0a    	and    $0xa0a0a0a,%esi
  4022df:	31 ce                	xor    %ecx,%esi
  4022e1:	89 f2                	mov    %esi,%edx
  4022e3:	81 e2 08 08 08 08    	and    $0x8080808,%edx
  4022e9:	89 d0                	mov    %edx,%eax
  4022eb:	d1 e8                	shr    %eax
  4022ed:	09 d0                	or     %edx,%eax
  4022ef:	01 c9                	add    %ecx,%ecx
  4022f1:	81 e1 08 08 08 08    	and    $0x8080808,%ecx
  4022f7:	31 c1                	xor    %eax,%ecx
  4022f9:	c1 e9 02             	shr    $0x2,%ecx
  4022fc:	81 e6 03 03 03 03    	and    $0x3030303,%esi
  402302:	31 ce                	xor    %ecx,%esi
  402304:	89 f0                	mov    %esi,%eax
  402306:	d1 e8                	shr    %eax
  402308:	25 01 01 01 01       	and    $0x1010101,%eax
  40230d:	31 f0                	xor    %esi,%eax
  40230f:	8d 14 85 00 00 00 00 	lea    0x0(,%rax,4),%edx
  402316:	09 c2                	or     %eax,%edx
  402318:	89 d0                	mov    %edx,%eax
  40231a:	44 21 d8             	and    %r11d,%eax
  40231d:	89 c1                	mov    %eax,%ecx
  40231f:	d1 e9                	shr    %ecx
  402321:	81 e1 05 05 05 05    	and    $0x5050505,%ecx
  402327:	31 c1                	xor    %eax,%ecx
  402329:	41 21 d1             	and    %edx,%r9d
  40232c:	01 d2                	add    %edx,%edx
  40232e:	44 21 da             	and    %r11d,%edx
  402331:	44 31 ca             	xor    %r9d,%edx
  402334:	81 e2 0a 0a 0a 0a    	and    $0xa0a0a0a,%edx
  40233a:	31 ca                	xor    %ecx,%edx
  40233c:	89 d1                	mov    %edx,%ecx
  40233e:	c1 e1 04             	shl    $0x4,%ecx
  402341:	09 d1                	or     %edx,%ecx
  402343:	44 89 d0             	mov    %r10d,%eax
  402346:	c1 e8 02             	shr    $0x2,%eax
  402349:	25 33 33 33 33       	and    $0x33333333,%eax
  40234e:	44 89 d2             	mov    %r10d,%edx
  402351:	81 e2 33 33 33 f3    	and    $0xf3333333,%edx
  402357:	44 8d 0c 90          	lea    (%rax,%rdx,4),%r9d
  40235b:	41 21 c8             	and    %ecx,%r8d
  40235e:	8d 14 09             	lea    (%rcx,%rcx,1),%edx
  402361:	89 c8                	mov    %ecx,%eax
  402363:	47 8d 1c 09          	lea    (%r9,%r9,1),%r11d
  402367:	41 21 cb             	and    %ecx,%r11d
  40236a:	89 ce                	mov    %ecx,%esi
  40236c:	44 21 d6             	and    %r10d,%esi
  40236f:	89 f1                	mov    %esi,%ecx
  402371:	d1 e9                	shr    %ecx
  402373:	81 e1 55 55 55 55    	and    $0x55555555,%ecx
  402379:	31 f1                	xor    %esi,%ecx
  40237b:	41 21 d2             	and    %edx,%r10d
  40237e:	45 31 c2             	xor    %r8d,%r10d
  402381:	41 81 e2 aa aa aa aa 	and    $0xaaaaaaaa,%r10d
  402388:	41 31 ca             	xor    %ecx,%r10d
  40238b:	44 21 c8             	and    %r9d,%eax
  40238e:	89 c1                	mov    %eax,%ecx
  402390:	d1 e9                	shr    %ecx
  402392:	81 e1 55 55 55 55    	and    $0x55555555,%ecx
  402398:	31 c1                	xor    %eax,%ecx
  40239a:	44 21 ca             	and    %r9d,%edx
  40239d:	44 31 da             	xor    %r11d,%edx
  4023a0:	81 e2 aa aa aa aa    	and    $0xaaaaaaaa,%edx
  4023a6:	31 ca                	xor    %ecx,%edx
  4023a8:	44 89 d1             	mov    %r10d,%ecx
  4023ab:	d1 e9                	shr    %ecx
  4023ad:	81 e1 22 22 22 22    	and    $0x22222222,%ecx
  4023b3:	44 31 d1             	xor    %r10d,%ecx
  4023b6:	44 89 d0             	mov    %r10d,%eax
  4023b9:	c1 e8 02             	shr    $0x2,%eax
  4023bc:	8d 34 95 00 00 00 00 	lea    0x0(,%rdx,4),%esi
  4023c3:	31 d6                	xor    %edx,%esi
  4023c5:	81 e6 cc cc cc cc    	and    $0xcccccccc,%esi
  4023cb:	25 22 22 22 22       	and    $0x22222222,%eax
  4023d0:	89 c2                	mov    %eax,%edx
  4023d2:	d1 ea                	shr    %edx
  4023d4:	09 c2                	or     %eax,%edx
  4023d6:	31 f1                	xor    %esi,%ecx
  4023d8:	31 d1                	xor    %edx,%ecx
  4023da:	89 ca                	mov    %ecx,%edx
  4023dc:	d1 ea                	shr    %edx
  4023de:	89 d0                	mov    %edx,%eax
  4023e0:	25 7c 7c 7c 7c       	and    $0x7c7c7c7c,%eax
  4023e5:	89 ce                	mov    %ecx,%esi
  4023e7:	c1 e6 07             	shl    $0x7,%esi
  4023ea:	81 e6 80 80 80 80    	and    $0x80808080,%esi
  4023f0:	09 c6                	or     %eax,%esi
  4023f2:	89 c8                	mov    %ecx,%eax
  4023f4:	25 39 39 39 39       	and    $0x39393939,%eax
  4023f9:	81 e2 3f 3f 3f 3f    	and    $0x3f3f3f3f,%edx
  4023ff:	31 c2                	xor    %eax,%edx
  402401:	c1 ee 02             	shr    $0x2,%esi
  402404:	89 c8                	mov    %ecx,%eax
  402406:	c1 e0 05             	shl    $0x5,%eax
  402409:	25 c0 c0 c0 c0       	and    $0xc0c0c0c0,%eax
  40240e:	09 f0                	or     %esi,%eax
  402410:	89 c6                	mov    %eax,%esi
  402412:	81 e6 97 97 97 97    	and    $0x97979797,%esi
  402418:	31 d6                	xor    %edx,%esi
  40241a:	89 c2                	mov    %eax,%edx
  40241c:	d1 ea                	shr    %edx
  40241e:	81 e2 7f 7f 7f 7f    	and    $0x7f7f7f7f,%edx
  402424:	c1 e1 04             	shl    $0x4,%ecx
  402427:	81 e1 80 80 80 80    	and    $0x80808080,%ecx
  40242d:	09 d1                	or     %edx,%ecx
  40242f:	89 ca                	mov    %ecx,%edx
  402431:	81 e2 9b 9b 9b 9b    	and    $0x9b9b9b9b,%edx
  402437:	31 f2                	xor    %esi,%edx
  402439:	89 ce                	mov    %ecx,%esi
  40243b:	d1 ee                	shr    %esi
  40243d:	41 89 f0             	mov    %esi,%r8d
  402440:	41 81 e0 7e 7e 7e 7e 	and    $0x7e7e7e7e,%r8d
  402447:	c1 e0 06             	shl    $0x6,%eax
  40244a:	25 80 80 80 80       	and    $0x80808080,%eax
  40244f:	44 09 c0             	or     %r8d,%eax
  402452:	81 e6 3c 3c 3c 3c    	and    $0x3c3c3c3c,%esi
  402458:	31 d6                	xor    %edx,%esi
  40245a:	d1 e8                	shr    %eax
  40245c:	c1 e1 06             	shl    $0x6,%ecx
  40245f:	81 e1 80 80 80 80    	and    $0x80808080,%ecx
  402465:	09 c1                	or     %eax,%ecx
  402467:	89 c8                	mov    %ecx,%eax
  402469:	25 dd dd dd dd       	and    $0xdddddddd,%eax
  40246e:	31 f0                	xor    %esi,%eax
  402470:	d1 e9                	shr    %ecx
  402472:	81 e1 72 72 72 72    	and    $0x72727272,%ecx
  402478:	31 c1                	xor    %eax,%ecx
  40247a:	81 f1 63 63 63 63    	xor    $0x63636363,%ecx
  402480:	89 0f                	mov    %ecx,(%rdi)
  402482:	c3                   	retq   
  402483:	66 2e 0f 1f 84 00 00 	nopw   %cs:0x0(%rax,%rax,1)
  40248a:	00 00 00 
  40248d:	0f 1f 00             	nopl   (%rax)

0000000000402490 <SubLong>:
  402490:	55                   	push   %rbp
  402491:	41 57                	push   %r15
  402493:	41 56                	push   %r14
  402495:	41 55                	push   %r13
  402497:	41 54                	push   %r12
  402499:	53                   	push   %rbx
  40249a:	48 89 7c 24 f8       	mov    %rdi,-0x8(%rsp)
  40249f:	48 8b 07             	mov    (%rdi),%rax
  4024a2:	48 89 c1             	mov    %rax,%rcx
  4024a5:	48 89 c5             	mov    %rax,%rbp
  4024a8:	48 89 c6             	mov    %rax,%rsi
  4024ab:	48 89 c7             	mov    %rax,%rdi
  4024ae:	49 89 c3             	mov    %rax,%r11
  4024b1:	48 ba 10 10 10 10 10 	movabs $0xf010101010101010,%rdx
  4024b8:	10 10 f0 
  4024bb:	48 21 c2             	and    %rax,%rdx
  4024be:	48 d1 e8             	shr    %rax
  4024c1:	49 bd dd dd dd dd dd 	movabs $0xdddddddddddddddd,%r13
  4024c8:	dd dd dd 
  4024cb:	4c 21 e9             	and    %r13,%rcx
  4024ce:	48 bb 57 57 57 57 57 	movabs $0x5757575757575757,%rbx
  4024d5:	57 57 57 
  4024d8:	48 21 c3             	and    %rax,%rbx
  4024db:	48 31 cb             	xor    %rcx,%rbx
  4024de:	48 c1 ed 02          	shr    $0x2,%rbp
  4024e2:	49 be 3e 3f 3f 3f 3f 	movabs $0x3f3f3f3f3f3f3f3e,%r14
  4024e9:	3f 3f 3f 
  4024ec:	48 b8 1c 1c 1c 1c 1c 	movabs $0x1c1c1c1c1c1c1c1c,%rax
  4024f3:	1c 1c 1c 
  4024f6:	48 21 e8             	and    %rbp,%rax
  4024f9:	4c 21 f5             	and    %r14,%rbp
  4024fc:	48 c1 e6 06          	shl    $0x6,%rsi
  402500:	49 b8 80 80 80 80 80 	movabs $0x8080808080808080,%r8
  402507:	80 80 80 
  40250a:	4c 21 c6             	and    %r8,%rsi
  40250d:	48 09 ee             	or     %rbp,%rsi
  402510:	48 31 d8             	xor    %rbx,%rax
  402513:	48 d1 ee             	shr    %rsi
  402516:	48 b9 5e 5e 5e 5e 5e 	movabs $0x5e5e5e5e5e5e5e5e,%rcx
  40251d:	5e 5e 5e 
  402520:	48 21 f1             	and    %rsi,%rcx
  402523:	48 c1 e7 05          	shl    $0x5,%rdi
  402527:	4c 21 c7             	and    %r8,%rdi
  40252a:	48 09 cf             	or     %rcx,%rdi
  40252d:	48 b9 4a 4a 4a 4a 4a 	movabs $0x4a4a4a4a4a4a4a4a,%rcx
  402534:	4a 4a 4a 
  402537:	48 21 f1             	and    %rsi,%rcx
  40253a:	48 31 c1             	xor    %rax,%rcx
  40253d:	48 d1 ef             	shr    %rdi
  402540:	49 c1 e3 04          	shl    $0x4,%r11
  402544:	4d 21 c3             	and    %r8,%r11
  402547:	49 09 fb             	or     %rdi,%r11
  40254a:	48 b8 42 42 42 42 42 	movabs $0x4242424242424242,%rax
  402551:	42 42 42 
  402554:	48 21 f8             	and    %rdi,%rax
  402557:	48 31 c8             	xor    %rcx,%rax
  40255a:	4c 89 d9             	mov    %r11,%rcx
  40255d:	48 d1 e9             	shr    %rcx
  402560:	48 be 40 40 40 40 40 	movabs $0x4040404040404040,%rsi
  402567:	40 40 40 
  40256a:	48 21 ce             	and    %rcx,%rsi
  40256d:	48 8d 14 d6          	lea    (%rsi,%rdx,8),%rdx
  402571:	48 be 64 64 64 64 64 	movabs $0x6464646464646464,%rsi
  402578:	64 64 64 
  40257b:	48 21 ce             	and    %rcx,%rsi
  40257e:	48 31 c6             	xor    %rax,%rsi
  402581:	48 d1 ea             	shr    %rdx
  402584:	49 c1 e3 06          	shl    $0x6,%r11
  402588:	4d 21 c3             	and    %r8,%r11
  40258b:	49 09 d3             	or     %rdx,%r11
  40258e:	49 31 f3             	xor    %rsi,%r11
  402591:	4c 89 df             	mov    %r11,%rdi
  402594:	48 c1 ef 04          	shr    $0x4,%rdi
  402598:	49 b8 0f 0f 0f 0f 0f 	movabs $0xf0f0f0f0f0f0f0f,%r8
  40259f:	0f 0f 0f 
  4025a2:	4c 21 c7             	and    %r8,%rdi
  4025a5:	4c 31 df             	xor    %r11,%rdi
  4025a8:	4c 89 d8             	mov    %r11,%rax
  4025ab:	48 c1 e8 02          	shr    $0x2,%rax
  4025af:	48 b9 33 33 33 33 33 	movabs $0x3333333333333333,%rcx
  4025b6:	33 33 33 
  4025b9:	48 21 c8             	and    %rcx,%rax
  4025bc:	49 bf 33 33 33 33 33 	movabs $0xf333333333333333,%r15
  4025c3:	33 33 f3 
  4025c6:	4c 89 d9             	mov    %r11,%rcx
  4025c9:	4c 21 f9             	and    %r15,%rcx
  4025cc:	48 8d 0c 88          	lea    (%rax,%rcx,4),%rcx
  4025d0:	48 89 f8             	mov    %rdi,%rax
  4025d3:	4c 21 d8             	and    %r11,%rax
  4025d6:	48 89 c6             	mov    %rax,%rsi
  4025d9:	48 d1 ee             	shr    %rsi
  4025dc:	48 bd 55 55 55 55 55 	movabs $0x5555555555555555,%rbp
  4025e3:	55 55 55 
  4025e6:	48 21 ee             	and    %rbp,%rsi
  4025e9:	48 89 ea             	mov    %rbp,%rdx
  4025ec:	48 31 c6             	xor    %rax,%rsi
  4025ef:	4b 8d 04 1b          	lea    (%r11,%r11,1),%rax
  4025f3:	48 21 f8             	and    %rdi,%rax
  4025f6:	48 8d 1c 3f          	lea    (%rdi,%rdi,1),%rbx
  4025fa:	49 21 db             	and    %rbx,%r11
  4025fd:	49 31 c3             	xor    %rax,%r11
  402600:	48 b8 aa aa aa aa aa 	movabs $0xaaaaaaaaaaaaaaaa,%rax
  402607:	aa aa aa 
  40260a:	49 21 c3             	and    %rax,%r11
  40260d:	48 89 c5             	mov    %rax,%rbp
  402610:	49 31 f3             	xor    %rsi,%r11
  402613:	48 89 c8             	mov    %rcx,%rax
  402616:	48 21 f8             	and    %rdi,%rax
  402619:	48 89 c6             	mov    %rax,%rsi
  40261c:	48 d1 ee             	shr    %rsi
  40261f:	48 21 d6             	and    %rdx,%rsi
  402622:	48 31 c6             	xor    %rax,%rsi
  402625:	48 8d 04 09          	lea    (%rcx,%rcx,1),%rax
  402629:	48 21 f8             	and    %rdi,%rax
  40262c:	48 21 d9             	and    %rbx,%rcx
  40262f:	48 31 c1             	xor    %rax,%rcx
  402632:	48 21 e9             	and    %rbp,%rcx
  402635:	48 31 f1             	xor    %rsi,%rcx
  402638:	48 8d 04 8d 00 00 00 	lea    0x0(,%rcx,4),%rax
  40263f:	00 
  402640:	48 31 c8             	xor    %rcx,%rax
  402643:	48 b9 22 22 22 22 22 	movabs $0x2222222222222222,%rcx
  40264a:	22 22 22 
  40264d:	4c 89 de             	mov    %r11,%rsi
  402650:	48 d1 ee             	shr    %rsi
  402653:	48 21 ce             	and    %rcx,%rsi
  402656:	4c 31 de             	xor    %r11,%rsi
  402659:	49 c1 eb 02          	shr    $0x2,%r11
  40265d:	49 21 cb             	and    %rcx,%r11
  402660:	4c 89 d9             	mov    %r11,%rcx
  402663:	48 d1 e9             	shr    %rcx
  402666:	4c 09 d9             	or     %r11,%rcx
  402669:	48 ba cc cc cc cc cc 	movabs $0xcccccccccccccccc,%rdx
  402670:	cc cc cc 
  402673:	48 21 d0             	and    %rdx,%rax
  402676:	48 31 c6             	xor    %rax,%rsi
  402679:	48 31 ce             	xor    %rcx,%rsi
  40267c:	48 b8 a0 a0 a0 a0 a0 	movabs $0xa0a0a0a0a0a0a0a0,%rax
  402683:	a0 a0 a0 
  402686:	48 89 f5             	mov    %rsi,%rbp
  402689:	48 21 c5             	and    %rax,%rbp
  40268c:	48 89 e9             	mov    %rbp,%rcx
  40268f:	48 d1 e9             	shr    %rcx
  402692:	48 09 e9             	or     %rbp,%rcx
  402695:	48 8d 2c 36          	lea    (%rsi,%rsi,1),%rbp
  402699:	48 21 c5             	and    %rax,%rbp
  40269c:	48 31 cd             	xor    %rcx,%rbp
  40269f:	48 b9 c0 c0 c0 c0 c0 	movabs $0xc0c0c0c0c0c0c0c0,%rcx
  4026a6:	c0 c0 c0 
  4026a9:	48 89 e8             	mov    %rbp,%rax
  4026ac:	48 21 c8             	and    %rcx,%rax
  4026af:	48 89 ca             	mov    %rcx,%rdx
  4026b2:	48 89 c1             	mov    %rax,%rcx
  4026b5:	48 c1 e9 02          	shr    $0x2,%rcx
  4026b9:	49 ba 20 20 20 20 20 	movabs $0x2020202020202020,%r10
  4026c0:	20 20 20 
  4026c3:	4c 21 d1             	and    %r10,%rcx
  4026c6:	49 89 cb             	mov    %rcx,%r11
  4026c9:	49 d1 eb             	shr    %r11
  4026cc:	49 09 cb             	or     %rcx,%r11
  4026cf:	48 c1 e5 02          	shl    $0x2,%rbp
  4026d3:	48 21 d5             	and    %rdx,%rbp
  4026d6:	48 31 c5             	xor    %rax,%rbp
  4026d9:	48 d1 e8             	shr    %rax
  4026dc:	4c 21 d0             	and    %r10,%rax
  4026df:	4c 31 d8             	xor    %r11,%rax
  4026e2:	48 09 e8             	or     %rbp,%rax
  4026e5:	4c 21 c6             	and    %r8,%rsi
  4026e8:	48 c1 e8 04          	shr    $0x4,%rax
  4026ec:	48 31 c6             	xor    %rax,%rsi
  4026ef:	48 89 f5             	mov    %rsi,%rbp
  4026f2:	48 c1 ed 02          	shr    $0x2,%rbp
  4026f6:	49 bb 03 03 03 03 03 	movabs $0x303030303030303,%r11
  4026fd:	03 03 03 
  402700:	4c 21 dd             	and    %r11,%rbp
  402703:	48 31 f5             	xor    %rsi,%rbp
  402706:	48 89 e9             	mov    %rbp,%rcx
  402709:	48 21 f1             	and    %rsi,%rcx
  40270c:	48 89 c8             	mov    %rcx,%rax
  40270f:	48 d1 e8             	shr    %rax
  402712:	49 bc 05 05 05 05 05 	movabs $0x505050505050505,%r12
  402719:	05 05 05 
  40271c:	4c 21 e0             	and    %r12,%rax
  40271f:	48 31 c8             	xor    %rcx,%rax
  402722:	4c 8d 14 36          	lea    (%rsi,%rsi,1),%r10
  402726:	49 21 ea             	and    %rbp,%r10
  402729:	49 89 e8             	mov    %rbp,%r8
  40272c:	49 01 e8             	add    %rbp,%r8
  40272f:	4c 21 c6             	and    %r8,%rsi
  402732:	4c 31 d6             	xor    %r10,%rsi
  402735:	49 ba 0a 0a 0a 0a 0a 	movabs $0xa0a0a0a0a0a0a0a,%r10
  40273c:	0a 0a 0a 
  40273f:	4c 21 d6             	and    %r10,%rsi
  402742:	48 31 c6             	xor    %rax,%rsi
  402745:	49 b9 08 08 08 08 08 	movabs $0x808080808080808,%r9
  40274c:	08 08 08 
  40274f:	48 89 f2             	mov    %rsi,%rdx
  402752:	4c 21 ca             	and    %r9,%rdx
  402755:	48 89 d1             	mov    %rdx,%rcx
  402758:	48 d1 e9             	shr    %rcx
  40275b:	48 09 d1             	or     %rdx,%rcx
  40275e:	48 01 c0             	add    %rax,%rax
  402761:	4c 21 c8             	and    %r9,%rax
  402764:	48 31 c8             	xor    %rcx,%rax
  402767:	4c 21 de             	and    %r11,%rsi
  40276a:	48 c1 e8 02          	shr    $0x2,%rax
  40276e:	48 31 c6             	xor    %rax,%rsi
  402771:	48 89 f0             	mov    %rsi,%rax
  402774:	48 d1 e8             	shr    %rax
  402777:	48 b9 01 01 01 01 01 	movabs $0x101010101010101,%rcx
  40277e:	01 01 01 
  402781:	48 21 c1             	and    %rax,%rcx
  402784:	48 31 f1             	xor    %rsi,%rcx
  402787:	48 8d 04 8d 00 00 00 	lea    0x0(,%rcx,4),%rax
  40278e:	00 
  40278f:	48 09 c8             	or     %rcx,%rax
  402792:	48 89 c1             	mov    %rax,%rcx
  402795:	48 21 e9             	and    %rbp,%rcx
  402798:	48 89 ca             	mov    %rcx,%rdx
  40279b:	48 d1 ea             	shr    %rdx
  40279e:	4c 21 e2             	and    %r12,%rdx
  4027a1:	48 31 ca             	xor    %rcx,%rdx
  4027a4:	49 21 c0             	and    %rax,%r8
  4027a7:	48 01 c0             	add    %rax,%rax
  4027aa:	48 21 e8             	and    %rbp,%rax
  4027ad:	4c 31 c0             	xor    %r8,%rax
  4027b0:	4c 21 d0             	and    %r10,%rax
  4027b3:	48 31 d0             	xor    %rdx,%rax
  4027b6:	48 89 c1             	mov    %rax,%rcx
  4027b9:	48 c1 e1 04          	shl    $0x4,%rcx
  4027bd:	48 09 c1             	or     %rax,%rcx
  4027c0:	48 89 f8             	mov    %rdi,%rax
  4027c3:	48 c1 e8 02          	shr    $0x2,%rax
  4027c7:	48 ba 33 33 33 33 33 	movabs $0x3333333333333333,%rdx
  4027ce:	33 33 33 
  4027d1:	48 21 d0             	and    %rdx,%rax
  4027d4:	49 21 ff             	and    %rdi,%r15
  4027d7:	4a 8d 04 b8          	lea    (%rax,%r15,4),%rax
  4027db:	48 21 cb             	and    %rcx,%rbx
  4027de:	48 89 ca             	mov    %rcx,%rdx
  4027e1:	48 21 fa             	and    %rdi,%rdx
  4027e4:	48 89 d6             	mov    %rdx,%rsi
  4027e7:	48 d1 ee             	shr    %rsi
  4027ea:	49 b8 55 55 55 55 55 	movabs $0x5555555555555555,%r8
  4027f1:	55 55 55 
  4027f4:	4c 21 c6             	and    %r8,%rsi
  4027f7:	48 31 d6             	xor    %rdx,%rsi
  4027fa:	48 8d 14 09          	lea    (%rcx,%rcx,1),%rdx
  4027fe:	48 21 d7             	and    %rdx,%rdi
  402801:	48 31 df             	xor    %rbx,%rdi
  402804:	48 8d 2c 00          	lea    (%rax,%rax,1),%rbp
  402808:	48 21 cd             	and    %rcx,%rbp
  40280b:	48 bb aa aa aa aa aa 	movabs $0xaaaaaaaaaaaaaaaa,%rbx
  402812:	aa aa aa 
  402815:	48 21 df             	and    %rbx,%rdi
  402818:	48 31 f7             	xor    %rsi,%rdi
  40281b:	48 21 c1             	and    %rax,%rcx
  40281e:	48 89 ce             	mov    %rcx,%rsi
  402821:	48 d1 ee             	shr    %rsi
  402824:	4c 21 c6             	and    %r8,%rsi
  402827:	48 31 ce             	xor    %rcx,%rsi
  40282a:	48 21 c2             	and    %rax,%rdx
  40282d:	48 31 ea             	xor    %rbp,%rdx
  402830:	48 21 da             	and    %rbx,%rdx
  402833:	48 31 f2             	xor    %rsi,%rdx
  402836:	48 8d 04 95 00 00 00 	lea    0x0(,%rdx,4),%rax
  40283d:	00 
  40283e:	48 31 d0             	xor    %rdx,%rax
  402841:	48 b9 cc cc cc cc cc 	movabs $0xcccccccccccccccc,%rcx
  402848:	cc cc cc 
  40284b:	48 21 c8             	and    %rcx,%rax
  40284e:	48 89 f9             	mov    %rdi,%rcx
  402851:	48 d1 e9             	shr    %rcx
  402854:	48 ba 22 22 22 22 22 	movabs $0x2222222222222222,%rdx
  40285b:	22 22 22 
  40285e:	48 21 d1             	and    %rdx,%rcx
  402861:	48 31 f9             	xor    %rdi,%rcx
  402864:	48 c1 ef 02          	shr    $0x2,%rdi
  402868:	48 21 d7             	and    %rdx,%rdi
  40286b:	48 89 fa             	mov    %rdi,%rdx
  40286e:	48 d1 ea             	shr    %rdx
  402871:	48 09 fa             	or     %rdi,%rdx
  402874:	48 31 c1             	xor    %rax,%rcx
  402877:	48 31 d1             	xor    %rdx,%rcx
  40287a:	48 89 c8             	mov    %rcx,%rax
  40287d:	48 d1 e8             	shr    %rax
  402880:	48 ba 7c 7c 7c 7c 7c 	movabs $0x7c7c7c7c7c7c7c7c,%rdx
  402887:	7c 7c 7c 
  40288a:	48 21 c2             	and    %rax,%rdx
  40288d:	48 89 ce             	mov    %rcx,%rsi
  402890:	48 c1 e6 07          	shl    $0x7,%rsi
  402894:	48 bd 80 80 80 80 80 	movabs $0x8080808080808080,%rbp
  40289b:	80 80 80 
  40289e:	48 21 ee             	and    %rbp,%rsi
  4028a1:	48 09 d6             	or     %rdx,%rsi
  4028a4:	49 83 ce 01          	or     $0x1,%r14
  4028a8:	49 21 c6             	and    %rax,%r14
  4028ab:	48 b8 39 39 39 39 39 	movabs $0x3939393939393939,%rax
  4028b2:	39 39 39 
  4028b5:	48 21 c8             	and    %rcx,%rax
  4028b8:	49 31 c6             	xor    %rax,%r14
  4028bb:	48 c1 ee 02          	shr    $0x2,%rsi
  4028bf:	48 89 c8             	mov    %rcx,%rax
  4028c2:	48 c1 e0 05          	shl    $0x5,%rax
  4028c6:	48 ba c0 c0 c0 c0 c0 	movabs $0xc0c0c0c0c0c0c0c0,%rdx
  4028cd:	c0 c0 c0 
  4028d0:	48 21 d0             	and    %rdx,%rax
  4028d3:	48 09 f0             	or     %rsi,%rax
  4028d6:	48 ba 97 97 97 97 97 	movabs $0x9797979797979797,%rdx
  4028dd:	97 97 97 
  4028e0:	48 21 c2             	and    %rax,%rdx
  4028e3:	4c 31 f2             	xor    %r14,%rdx
  4028e6:	48 89 c6             	mov    %rax,%rsi
  4028e9:	48 d1 ee             	shr    %rsi
  4028ec:	48 bf 7f 7f 7f 7f 7f 	movabs $0x7f7f7f7f7f7f7f7f,%rdi
  4028f3:	7f 7f 7f 
  4028f6:	48 21 f7             	and    %rsi,%rdi
  4028f9:	48 c1 e1 04          	shl    $0x4,%rcx
  4028fd:	48 21 e9             	and    %rbp,%rcx
  402900:	48 09 f9             	or     %rdi,%rcx
  402903:	48 be 9b 9b 9b 9b 9b 	movabs $0x9b9b9b9b9b9b9b9b,%rsi
  40290a:	9b 9b 9b 
  40290d:	48 21 ce             	and    %rcx,%rsi
  402910:	48 31 d6             	xor    %rdx,%rsi
  402913:	48 89 ca             	mov    %rcx,%rdx
  402916:	48 d1 ea             	shr    %rdx
  402919:	48 bf 7e 7e 7e 7e 7e 	movabs $0x7e7e7e7e7e7e7e7e,%rdi
  402920:	7e 7e 7e 
  402923:	48 21 d7             	and    %rdx,%rdi
  402926:	48 c1 e0 06          	shl    $0x6,%rax
  40292a:	48 21 e8             	and    %rbp,%rax
  40292d:	48 09 f8             	or     %rdi,%rax
  402930:	48 bf 3c 3c 3c 3c 3c 	movabs $0x3c3c3c3c3c3c3c3c,%rdi
  402937:	3c 3c 3c 
  40293a:	48 21 d7             	and    %rdx,%rdi
  40293d:	48 31 f7             	xor    %rsi,%rdi
  402940:	48 c1 e1 06          	shl    $0x6,%rcx
  402944:	48 21 e9             	and    %rbp,%rcx
  402947:	48 d1 e8             	shr    %rax
  40294a:	48 09 c1             	or     %rax,%rcx
  40294d:	49 21 cd             	and    %rcx,%r13
  402950:	49 31 fd             	xor    %rdi,%r13
  402953:	48 d1 e9             	shr    %rcx
  402956:	48 b8 72 72 72 72 72 	movabs $0x7272727272727272,%rax
  40295d:	72 72 72 
  402960:	48 21 c8             	and    %rcx,%rax
  402963:	4c 31 e8             	xor    %r13,%rax
  402966:	48 b9 63 63 63 63 63 	movabs $0x6363636363636363,%rcx
  40296d:	63 63 63 
  402970:	48 31 c1             	xor    %rax,%rcx
  402973:	48 8b 44 24 f8       	mov    -0x8(%rsp),%rax
  402978:	48 89 08             	mov    %rcx,(%rax)
  40297b:	5b                   	pop    %rbx
  40297c:	41 5c                	pop    %r12
  40297e:	41 5d                	pop    %r13
  402980:	41 5e                	pop    %r14
  402982:	41 5f                	pop    %r15
  402984:	5d                   	pop    %rbp
  402985:	c3                   	retq   
  402986:	66 2e 0f 1f 84 00 00 	nopw   %cs:0x0(%rax,%rax,1)
  40298d:	00 00 00 

0000000000402990 <InvSubLong>:
  402990:	55                   	push   %rbp
  402991:	41 57                	push   %r15
  402993:	41 56                	push   %r14
  402995:	41 55                	push   %r13
  402997:	41 54                	push   %r12
  402999:	53                   	push   %rbx
  40299a:	48 89 7c 24 f8       	mov    %rdi,-0x8(%rsp)
  40299f:	48 be 63 63 63 63 63 	movabs $0x6363636363636363,%rsi
  4029a6:	63 63 63 
  4029a9:	48 33 37             	xor    (%rdi),%rsi
  4029ac:	48 89 f1             	mov    %rsi,%rcx
  4029af:	48 d1 e9             	shr    %rcx
  4029b2:	48 b8 7e 7e 7e 7e 7e 	movabs $0x7e7e7e7e7e7e7e7e,%rax
  4029b9:	7e 7e 7e 
  4029bc:	48 ba 5e 5e 5e 5e 5e 	movabs $0x5e5e5e5e5e5e5e5e,%rdx
  4029c3:	5e 5e 5e 
  4029c6:	48 21 ca             	and    %rcx,%rdx
  4029c9:	48 21 c1             	and    %rax,%rcx
  4029cc:	48 89 f7             	mov    %rsi,%rdi
  4029cf:	48 c1 e7 07          	shl    $0x7,%rdi
  4029d3:	49 bd 80 80 80 80 80 	movabs $0x8080808080808080,%r13
  4029da:	80 80 80 
  4029dd:	4c 21 ef             	and    %r13,%rdi
  4029e0:	48 09 cf             	or     %rcx,%rdi
  4029e3:	48 b9 fd fd fd fd fd 	movabs $0xfdfdfdfdfdfdfdfd,%rcx
  4029ea:	fd fd fd 
  4029ed:	48 21 f1             	and    %rsi,%rcx
  4029f0:	48 31 ca             	xor    %rcx,%rdx
  4029f3:	48 d1 ef             	shr    %rdi
  4029f6:	48 89 f1             	mov    %rsi,%rcx
  4029f9:	48 c1 e1 06          	shl    $0x6,%rcx
  4029fd:	4c 21 e9             	and    %r13,%rcx
  402a00:	48 09 f9             	or     %rdi,%rcx
  402a03:	48 bf f3 f3 f3 f3 f3 	movabs $0xf3f3f3f3f3f3f3f3,%rdi
  402a0a:	f3 f3 f3 
  402a0d:	48 21 cf             	and    %rcx,%rdi
  402a10:	48 31 d7             	xor    %rdx,%rdi
  402a13:	48 89 ca             	mov    %rcx,%rdx
  402a16:	48 d1 ea             	shr    %rdx
  402a19:	48 bd 7f 7f 7f 7f 7f 	movabs $0x7f7f7f7f7f7f7f7f,%rbp
  402a20:	7f 7f 7f 
  402a23:	48 21 ea             	and    %rbp,%rdx
  402a26:	48 c1 e6 05          	shl    $0x5,%rsi
  402a2a:	4c 21 ee             	and    %r13,%rsi
  402a2d:	48 09 d6             	or     %rdx,%rsi
  402a30:	48 ba f5 f5 f5 f5 f5 	movabs $0xf5f5f5f5f5f5f5f5,%rdx
  402a37:	f5 f5 f5 
  402a3a:	48 21 f2             	and    %rsi,%rdx
  402a3d:	48 31 fa             	xor    %rdi,%rdx
  402a40:	48 89 f7             	mov    %rsi,%rdi
  402a43:	48 d1 ef             	shr    %rdi
  402a46:	48 21 f8             	and    %rdi,%rax
  402a49:	48 c1 e1 06          	shl    $0x6,%rcx
  402a4d:	4c 21 e9             	and    %r13,%rcx
  402a50:	48 09 c1             	or     %rax,%rcx
  402a53:	48 b8 78 78 78 78 78 	movabs $0x7878787878787878,%rax
  402a5a:	78 78 78 
  402a5d:	48 21 f8             	and    %rdi,%rax
  402a60:	48 31 d0             	xor    %rdx,%rax
  402a63:	48 d1 e9             	shr    %rcx
  402a66:	48 c1 e6 06          	shl    $0x6,%rsi
  402a6a:	4c 21 ee             	and    %r13,%rsi
  402a6d:	48 09 ce             	or     %rcx,%rsi
  402a70:	48 ba 77 77 77 77 77 	movabs $0x7777777777777777,%rdx
  402a77:	77 77 77 
  402a7a:	48 21 ca             	and    %rcx,%rdx
  402a7d:	48 31 c2             	xor    %rax,%rdx
  402a80:	48 89 f0             	mov    %rsi,%rax
  402a83:	48 d1 e8             	shr    %rax
  402a86:	48 b9 15 15 15 15 15 	movabs $0x1515151515151515,%rcx
  402a8d:	15 15 15 
  402a90:	48 21 c1             	and    %rax,%rcx
  402a93:	48 31 d1             	xor    %rdx,%rcx
  402a96:	48 89 f0             	mov    %rsi,%rax
  402a99:	48 c1 e8 02          	shr    $0x2,%rax
  402a9d:	48 ba 25 25 25 25 25 	movabs $0x2525252525252525,%rdx
  402aa4:	25 25 25 
  402aa7:	48 21 c2             	and    %rax,%rdx
  402aaa:	48 c1 e6 06          	shl    $0x6,%rsi
  402aae:	4c 21 ee             	and    %r13,%rsi
  402ab1:	48 09 d6             	or     %rdx,%rsi
  402ab4:	48 31 ce             	xor    %rcx,%rsi
  402ab7:	49 89 f0             	mov    %rsi,%r8
  402aba:	49 c1 e8 04          	shr    $0x4,%r8
  402abe:	49 bc 0f 0f 0f 0f 0f 	movabs $0xf0f0f0f0f0f0f0f,%r12
  402ac5:	0f 0f 0f 
  402ac8:	4d 21 e0             	and    %r12,%r8
  402acb:	49 31 f0             	xor    %rsi,%r8
  402ace:	48 89 f0             	mov    %rsi,%rax
  402ad1:	48 c1 e8 02          	shr    $0x2,%rax
  402ad5:	48 b9 33 33 33 33 33 	movabs $0x3333333333333333,%rcx
  402adc:	33 33 33 
  402adf:	48 21 c8             	and    %rcx,%rax
  402ae2:	48 bd 33 33 33 33 33 	movabs $0xf333333333333333,%rbp
  402ae9:	33 33 f3 
  402aec:	48 89 f1             	mov    %rsi,%rcx
  402aef:	48 21 e9             	and    %rbp,%rcx
  402af2:	48 8d 0c 88          	lea    (%rax,%rcx,4),%rcx
  402af6:	4c 89 c0             	mov    %r8,%rax
  402af9:	48 21 f0             	and    %rsi,%rax
  402afc:	48 89 c2             	mov    %rax,%rdx
  402aff:	48 d1 ea             	shr    %rdx
  402b02:	48 bf 55 55 55 55 55 	movabs $0x5555555555555555,%rdi
  402b09:	55 55 55 
  402b0c:	48 21 fa             	and    %rdi,%rdx
  402b0f:	49 89 f9             	mov    %rdi,%r9
  402b12:	48 31 c2             	xor    %rax,%rdx
  402b15:	48 8d 04 36          	lea    (%rsi,%rsi,1),%rax
  402b19:	4c 21 c0             	and    %r8,%rax
  402b1c:	4b 8d 1c 00          	lea    (%r8,%r8,1),%rbx
  402b20:	48 21 de             	and    %rbx,%rsi
  402b23:	48 31 c6             	xor    %rax,%rsi
  402b26:	48 b8 aa aa aa aa aa 	movabs $0xaaaaaaaaaaaaaaaa,%rax
  402b2d:	aa aa aa 
  402b30:	48 21 c6             	and    %rax,%rsi
  402b33:	48 89 c7             	mov    %rax,%rdi
  402b36:	48 31 d6             	xor    %rdx,%rsi
  402b39:	48 89 c8             	mov    %rcx,%rax
  402b3c:	4c 21 c0             	and    %r8,%rax
  402b3f:	48 89 c2             	mov    %rax,%rdx
  402b42:	48 d1 ea             	shr    %rdx
  402b45:	4c 21 ca             	and    %r9,%rdx
  402b48:	48 31 c2             	xor    %rax,%rdx
  402b4b:	48 8d 04 09          	lea    (%rcx,%rcx,1),%rax
  402b4f:	4c 21 c0             	and    %r8,%rax
  402b52:	48 21 d9             	and    %rbx,%rcx
  402b55:	48 31 c1             	xor    %rax,%rcx
  402b58:	48 21 f9             	and    %rdi,%rcx
  402b5b:	48 31 d1             	xor    %rdx,%rcx
  402b5e:	49 bf 22 22 22 22 22 	movabs $0x2222222222222222,%r15
  402b65:	22 22 22 
  402b68:	48 89 f2             	mov    %rsi,%rdx
  402b6b:	48 d1 ea             	shr    %rdx
  402b6e:	4c 21 fa             	and    %r15,%rdx
  402b71:	48 31 f2             	xor    %rsi,%rdx
  402b74:	48 c1 ee 02          	shr    $0x2,%rsi
  402b78:	48 8d 04 8d 00 00 00 	lea    0x0(,%rcx,4),%rax
  402b7f:	00 
  402b80:	48 31 c8             	xor    %rcx,%rax
  402b83:	4c 21 fe             	and    %r15,%rsi
  402b86:	48 89 f1             	mov    %rsi,%rcx
  402b89:	48 d1 e9             	shr    %rcx
  402b8c:	48 09 f1             	or     %rsi,%rcx
  402b8f:	48 be cc cc cc cc cc 	movabs $0xcccccccccccccccc,%rsi
  402b96:	cc cc cc 
  402b99:	48 21 f0             	and    %rsi,%rax
  402b9c:	48 31 c2             	xor    %rax,%rdx
  402b9f:	48 31 ca             	xor    %rcx,%rdx
  402ba2:	48 b8 a0 a0 a0 a0 a0 	movabs $0xa0a0a0a0a0a0a0a0,%rax
  402ba9:	a0 a0 a0 
  402bac:	48 89 d1             	mov    %rdx,%rcx
  402baf:	48 21 c1             	and    %rax,%rcx
  402bb2:	48 89 ce             	mov    %rcx,%rsi
  402bb5:	48 d1 ee             	shr    %rsi
  402bb8:	48 09 ce             	or     %rcx,%rsi
  402bbb:	48 8d 0c 12          	lea    (%rdx,%rdx,1),%rcx
  402bbf:	48 21 c1             	and    %rax,%rcx
  402bc2:	48 31 f1             	xor    %rsi,%rcx
  402bc5:	48 b8 c0 c0 c0 c0 c0 	movabs $0xc0c0c0c0c0c0c0c0,%rax
  402bcc:	c0 c0 c0 
  402bcf:	48 89 ce             	mov    %rcx,%rsi
  402bd2:	48 21 c6             	and    %rax,%rsi
  402bd5:	48 c1 e1 02          	shl    $0x2,%rcx
  402bd9:	48 21 c1             	and    %rax,%rcx
  402bdc:	48 89 f0             	mov    %rsi,%rax
  402bdf:	48 c1 e8 02          	shr    $0x2,%rax
  402be3:	48 bf 20 20 20 20 20 	movabs $0x2020202020202020,%rdi
  402bea:	20 20 20 
  402bed:	48 21 f8             	and    %rdi,%rax
  402bf0:	49 89 c1             	mov    %rax,%r9
  402bf3:	49 d1 e9             	shr    %r9
  402bf6:	49 09 c1             	or     %rax,%r9
  402bf9:	48 31 f1             	xor    %rsi,%rcx
  402bfc:	48 d1 ee             	shr    %rsi
  402bff:	48 21 fe             	and    %rdi,%rsi
  402c02:	4c 31 ce             	xor    %r9,%rsi
  402c05:	48 09 ce             	or     %rcx,%rsi
  402c08:	48 c1 ee 04          	shr    $0x4,%rsi
  402c0c:	4c 21 e2             	and    %r12,%rdx
  402c0f:	48 31 f2             	xor    %rsi,%rdx
  402c12:	48 89 d7             	mov    %rdx,%rdi
  402c15:	48 c1 ef 02          	shr    $0x2,%rdi
  402c19:	49 bb 03 03 03 03 03 	movabs $0x303030303030303,%r11
  402c20:	03 03 03 
  402c23:	4c 21 df             	and    %r11,%rdi
  402c26:	48 31 d7             	xor    %rdx,%rdi
  402c29:	48 89 f9             	mov    %rdi,%rcx
  402c2c:	48 21 d1             	and    %rdx,%rcx
  402c2f:	48 89 c8             	mov    %rcx,%rax
  402c32:	48 d1 e8             	shr    %rax
  402c35:	49 bc 05 05 05 05 05 	movabs $0x505050505050505,%r12
  402c3c:	05 05 05 
  402c3f:	4c 21 e0             	and    %r12,%rax
  402c42:	48 31 c8             	xor    %rcx,%rax
  402c45:	4c 8d 0c 12          	lea    (%rdx,%rdx,1),%r9
  402c49:	49 21 f9             	and    %rdi,%r9
  402c4c:	4c 8d 14 3f          	lea    (%rdi,%rdi,1),%r10
  402c50:	4c 21 d2             	and    %r10,%rdx
  402c53:	4c 31 ca             	xor    %r9,%rdx
  402c56:	49 be 0a 0a 0a 0a 0a 	movabs $0xa0a0a0a0a0a0a0a,%r14
  402c5d:	0a 0a 0a 
  402c60:	4c 21 f2             	and    %r14,%rdx
  402c63:	48 31 c2             	xor    %rax,%rdx
  402c66:	49 b9 08 08 08 08 08 	movabs $0x808080808080808,%r9
  402c6d:	08 08 08 
  402c70:	48 89 d6             	mov    %rdx,%rsi
  402c73:	4c 21 ce             	and    %r9,%rsi
  402c76:	48 89 f1             	mov    %rsi,%rcx
  402c79:	48 d1 e9             	shr    %rcx
  402c7c:	48 09 f1             	or     %rsi,%rcx
  402c7f:	48 01 c0             	add    %rax,%rax
  402c82:	4c 21 c8             	and    %r9,%rax
  402c85:	48 31 c8             	xor    %rcx,%rax
  402c88:	4c 21 da             	and    %r11,%rdx
  402c8b:	48 c1 e8 02          	shr    $0x2,%rax
  402c8f:	48 31 c2             	xor    %rax,%rdx
  402c92:	48 89 d0             	mov    %rdx,%rax
  402c95:	48 d1 e8             	shr    %rax
  402c98:	48 b9 01 01 01 01 01 	movabs $0x101010101010101,%rcx
  402c9f:	01 01 01 
  402ca2:	48 21 c1             	and    %rax,%rcx
  402ca5:	48 31 d1             	xor    %rdx,%rcx
  402ca8:	48 8d 04 8d 00 00 00 	lea    0x0(,%rcx,4),%rax
  402caf:	00 
  402cb0:	48 09 c8             	or     %rcx,%rax
  402cb3:	48 89 c1             	mov    %rax,%rcx
  402cb6:	48 21 f9             	and    %rdi,%rcx
  402cb9:	48 89 ca             	mov    %rcx,%rdx
  402cbc:	48 d1 ea             	shr    %rdx
  402cbf:	4c 21 e2             	and    %r12,%rdx
  402cc2:	48 31 ca             	xor    %rcx,%rdx
  402cc5:	49 21 c2             	and    %rax,%r10
  402cc8:	48 01 c0             	add    %rax,%rax
  402ccb:	48 21 f8             	and    %rdi,%rax
  402cce:	4c 31 d0             	xor    %r10,%rax
  402cd1:	4c 21 f0             	and    %r14,%rax
  402cd4:	48 31 d0             	xor    %rdx,%rax
  402cd7:	48 89 c1             	mov    %rax,%rcx
  402cda:	48 c1 e1 04          	shl    $0x4,%rcx
  402cde:	48 09 c1             	or     %rax,%rcx
  402ce1:	4c 89 c0             	mov    %r8,%rax
  402ce4:	48 c1 e8 02          	shr    $0x2,%rax
  402ce8:	48 ba 33 33 33 33 33 	movabs $0x3333333333333333,%rdx
  402cef:	33 33 33 
  402cf2:	48 21 d0             	and    %rdx,%rax
  402cf5:	4c 21 c5             	and    %r8,%rbp
  402cf8:	48 8d 04 a8          	lea    (%rax,%rbp,4),%rax
  402cfc:	48 21 cb             	and    %rcx,%rbx
  402cff:	48 89 ca             	mov    %rcx,%rdx
  402d02:	4c 21 c2             	and    %r8,%rdx
  402d05:	48 89 d6             	mov    %rdx,%rsi
  402d08:	48 d1 ee             	shr    %rsi
  402d0b:	48 bd 55 55 55 55 55 	movabs $0x5555555555555555,%rbp
  402d12:	55 55 55 
  402d15:	48 21 ee             	and    %rbp,%rsi
  402d18:	48 31 d6             	xor    %rdx,%rsi
  402d1b:	48 8d 14 09          	lea    (%rcx,%rcx,1),%rdx
  402d1f:	49 21 d0             	and    %rdx,%r8
  402d22:	49 31 d8             	xor    %rbx,%r8
  402d25:	48 8d 3c 00          	lea    (%rax,%rax,1),%rdi
  402d29:	48 21 cf             	and    %rcx,%rdi
  402d2c:	48 bb aa aa aa aa aa 	movabs $0xaaaaaaaaaaaaaaaa,%rbx
  402d33:	aa aa aa 
  402d36:	49 21 d8             	and    %rbx,%r8
  402d39:	49 31 f0             	xor    %rsi,%r8
  402d3c:	48 21 c1             	and    %rax,%rcx
  402d3f:	48 89 ce             	mov    %rcx,%rsi
  402d42:	48 d1 ee             	shr    %rsi
  402d45:	48 21 ee             	and    %rbp,%rsi
  402d48:	48 31 ce             	xor    %rcx,%rsi
  402d4b:	48 21 c2             	and    %rax,%rdx
  402d4e:	48 31 fa             	xor    %rdi,%rdx
  402d51:	48 21 da             	and    %rbx,%rdx
  402d54:	48 31 f2             	xor    %rsi,%rdx
  402d57:	4c 89 c1             	mov    %r8,%rcx
  402d5a:	48 d1 e9             	shr    %rcx
  402d5d:	4c 21 f9             	and    %r15,%rcx
  402d60:	4c 31 c1             	xor    %r8,%rcx
  402d63:	49 c1 e8 02          	shr    $0x2,%r8
  402d67:	48 8d 04 95 00 00 00 	lea    0x0(,%rdx,4),%rax
  402d6e:	00 
  402d6f:	48 31 d0             	xor    %rdx,%rax
  402d72:	48 ba cc cc cc cc cc 	movabs $0xcccccccccccccccc,%rdx
  402d79:	cc cc cc 
  402d7c:	48 21 d0             	and    %rdx,%rax
  402d7f:	4d 21 f8             	and    %r15,%r8
  402d82:	4c 89 c2             	mov    %r8,%rdx
  402d85:	48 d1 ea             	shr    %rdx
  402d88:	4c 09 c2             	or     %r8,%rdx
  402d8b:	48 31 c1             	xor    %rax,%rcx
  402d8e:	48 31 d1             	xor    %rdx,%rcx
  402d91:	48 b8 b5 b5 b5 b5 b5 	movabs $0xb5b5b5b5b5b5b5b5,%rax
  402d98:	b5 b5 b5 
  402d9b:	48 21 c8             	and    %rcx,%rax
  402d9e:	48 89 ca             	mov    %rcx,%rdx
  402da1:	48 89 ce             	mov    %rcx,%rsi
  402da4:	48 89 cf             	mov    %rcx,%rdi
  402da7:	48 d1 ef             	shr    %rdi
  402daa:	48 bd 40 40 40 40 40 	movabs $0x4040404040404040,%rbp
  402db1:	40 40 40 
  402db4:	48 21 fd             	and    %rdi,%rbp
  402db7:	48 09 c5             	or     %rax,%rbp
  402dba:	48 c1 ee 03          	shr    $0x3,%rsi
  402dbe:	48 b8 1e 1e 1e 1e 1e 	movabs $0x1e1e1e1e1e1e1e1e,%rax
  402dc5:	1e 1e 1e 
  402dc8:	48 21 f0             	and    %rsi,%rax
  402dcb:	48 bf 16 16 16 16 16 	movabs $0x1616161616161616,%rdi
  402dd2:	16 16 16 
  402dd5:	48 21 f7             	and    %rsi,%rdi
  402dd8:	48 89 ce             	mov    %rcx,%rsi
  402ddb:	48 c1 e2 06          	shl    $0x6,%rdx
  402ddf:	4c 21 ea             	and    %r13,%rdx
  402de2:	48 31 d7             	xor    %rdx,%rdi
  402de5:	48 d1 ea             	shr    %rdx
  402de8:	48 c1 e6 05          	shl    $0x5,%rsi
  402dec:	4c 21 ee             	and    %r13,%rsi
  402def:	48 09 d6             	or     %rdx,%rsi
  402df2:	48 09 c6             	or     %rax,%rsi
  402df5:	48 31 ef             	xor    %rbp,%rdi
  402df8:	48 b8 10 10 10 10 10 	movabs $0xf010101010101010,%rax
  402dff:	10 10 f0 
  402e02:	48 21 c8             	and    %rcx,%rax
  402e05:	48 d1 ee             	shr    %rsi
  402e08:	48 c1 e1 04          	shl    $0x4,%rcx
  402e0c:	4c 21 e9             	and    %r13,%rcx
  402e0f:	48 09 f1             	or     %rsi,%rcx
  402e12:	48 ba eb eb eb eb eb 	movabs $0xebebebebebebebeb,%rdx
  402e19:	eb eb eb 
  402e1c:	48 21 ca             	and    %rcx,%rdx
  402e1f:	48 31 fa             	xor    %rdi,%rdx
  402e22:	48 89 ce             	mov    %rcx,%rsi
  402e25:	48 d1 ee             	shr    %rsi
  402e28:	48 bf 7f 7f 7f 7f 7f 	movabs $0x7f7f7f7f7f7f7f7f,%rdi
  402e2f:	7f 7f 7f 
  402e32:	48 21 fe             	and    %rdi,%rsi
  402e35:	48 8d 04 c6          	lea    (%rsi,%rax,8),%rax
  402e39:	48 be 97 97 97 97 97 	movabs $0x9797979797979797,%rsi
  402e40:	97 97 97 
  402e43:	48 21 c6             	and    %rax,%rsi
  402e46:	48 31 d6             	xor    %rdx,%rsi
  402e49:	48 d1 e8             	shr    %rax
  402e4c:	48 21 f8             	and    %rdi,%rax
  402e4f:	48 c1 e1 06          	shl    $0x6,%rcx
  402e53:	4c 21 e9             	and    %r13,%rcx
  402e56:	48 09 c1             	or     %rax,%rcx
  402e59:	48 b8 fb fb fb fb fb 	movabs $0xfbfbfbfbfbfbfbfb,%rax
  402e60:	fb fb fb 
  402e63:	48 21 c8             	and    %rcx,%rax
  402e66:	48 31 f0             	xor    %rsi,%rax
  402e69:	48 d1 e9             	shr    %rcx
  402e6c:	48 ba 7d 7d 7d 7d 7d 	movabs $0x7d7d7d7d7d7d7d7d,%rdx
  402e73:	7d 7d 7d 
  402e76:	48 21 ca             	and    %rcx,%rdx
  402e79:	48 31 c2             	xor    %rax,%rdx
  402e7c:	48 8b 44 24 f8       	mov    -0x8(%rsp),%rax
  402e81:	48 89 10             	mov    %rdx,(%rax)
  402e84:	5b                   	pop    %rbx
  402e85:	41 5c                	pop    %r12
  402e87:	41 5d                	pop    %r13
  402e89:	41 5e                	pop    %r14
  402e8b:	41 5f                	pop    %r15
  402e8d:	5d                   	pop    %rbp
  402e8e:	c3                   	retq   
  402e8f:	66 2e 0f 1f 84 00 00 	nopw   %cs:0x0(%rax,%rax,1)
  402e96:	00 00 00 
  402e99:	66 2e 0f 1f 84 00 00 	nopw   %cs:0x0(%rax,%rax,1)
  402ea0:	00 00 00 
  402ea3:	66 2e 0f 1f 84 00 00 	nopw   %cs:0x0(%rax,%rax,1)
  402eaa:	00 00 00 
  402ead:	66 2e 0f 1f 84 00 00 	nopw   %cs:0x0(%rax,%rax,1)
  402eb4:	00 00 00 
  402eb7:	66 0f 1f 84 00 00 00 	nopw   0x0(%rax,%rax,1)
  402ebe:	00 00 

0000000000402ec0 <aesni_encrypt>:
  402ec0:	0f 10 17             	movups (%rdi),%xmm2
  402ec3:	8b 82 f0 00 00 00    	mov    0xf0(%rdx),%eax
  402ec9:	0f 10 02             	movups (%rdx),%xmm0
  402ecc:	0f 10 4a 10          	movups 0x10(%rdx),%xmm1
  402ed0:	48 8d 52 20          	lea    0x20(%rdx),%rdx
  402ed4:	0f 57 d0             	xorps  %xmm0,%xmm2
  402ed7:	66 0f 38 dc d1       	aesenc %xmm1,%xmm2
  402edc:	ff c8                	dec    %eax
  402ede:	0f 10 0a             	movups (%rdx),%xmm1
  402ee1:	48 8d 52 10          	lea    0x10(%rdx),%rdx
  402ee5:	75 f0                	jne    402ed7 <aesni_encrypt+0x17>
  402ee7:	66 0f 38 dd d1       	aesenclast %xmm1,%xmm2
  402eec:	66 0f ef c0          	pxor   %xmm0,%xmm0
  402ef0:	66 0f ef c9          	pxor   %xmm1,%xmm1
  402ef4:	0f 11 16             	movups %xmm2,(%rsi)
  402ef7:	66 0f ef d2          	pxor   %xmm2,%xmm2
  402efb:	f3 c3                	repz retq 
  402efd:	0f 1f 00             	nopl   (%rax)

0000000000402f00 <aesni_decrypt>:
  402f00:	0f 10 17             	movups (%rdi),%xmm2
  402f03:	8b 82 f0 00 00 00    	mov    0xf0(%rdx),%eax
  402f09:	0f 10 02             	movups (%rdx),%xmm0
  402f0c:	0f 10 4a 10          	movups 0x10(%rdx),%xmm1
  402f10:	48 8d 52 20          	lea    0x20(%rdx),%rdx
  402f14:	0f 57 d0             	xorps  %xmm0,%xmm2
  402f17:	66 0f 38 de d1       	aesdec %xmm1,%xmm2
  402f1c:	ff c8                	dec    %eax
  402f1e:	0f 10 0a             	movups (%rdx),%xmm1
  402f21:	48 8d 52 10          	lea    0x10(%rdx),%rdx
  402f25:	75 f0                	jne    402f17 <aesni_decrypt+0x17>
  402f27:	66 0f 38 df d1       	aesdeclast %xmm1,%xmm2
  402f2c:	66 0f ef c0          	pxor   %xmm0,%xmm0
  402f30:	66 0f ef c9          	pxor   %xmm1,%xmm1
  402f34:	0f 11 16             	movups %xmm2,(%rsi)
  402f37:	66 0f ef d2          	pxor   %xmm2,%xmm2
  402f3b:	f3 c3                	repz retq 
  402f3d:	0f 1f 00             	nopl   (%rax)

0000000000402f40 <_aesni_encrypt2>:
  402f40:	0f 10 01             	movups (%rcx),%xmm0
  402f43:	c1 e0 04             	shl    $0x4,%eax
  402f46:	0f 10 49 10          	movups 0x10(%rcx),%xmm1
  402f4a:	0f 57 d0             	xorps  %xmm0,%xmm2
  402f4d:	0f 57 d8             	xorps  %xmm0,%xmm3
  402f50:	0f 10 41 20          	movups 0x20(%rcx),%xmm0
  402f54:	48 8d 4c 01 20       	lea    0x20(%rcx,%rax,1),%rcx
  402f59:	48 f7 d8             	neg    %rax
  402f5c:	48 83 c0 10          	add    $0x10,%rax
  402f60:	66 0f 38 dc d1       	aesenc %xmm1,%xmm2
  402f65:	66 0f 38 dc d9       	aesenc %xmm1,%xmm3
  402f6a:	0f 10 0c 01          	movups (%rcx,%rax,1),%xmm1
  402f6e:	48 83 c0 20          	add    $0x20,%rax
  402f72:	66 0f 38 dc d0       	aesenc %xmm0,%xmm2
  402f77:	66 0f 38 dc d8       	aesenc %xmm0,%xmm3
  402f7c:	0f 10 44 01 f0       	movups -0x10(%rcx,%rax,1),%xmm0
  402f81:	75 dd                	jne    402f60 <_aesni_encrypt2+0x20>
  402f83:	66 0f 38 dc d1       	aesenc %xmm1,%xmm2
  402f88:	66 0f 38 dc d9       	aesenc %xmm1,%xmm3
  402f8d:	66 0f 38 dd d0       	aesenclast %xmm0,%xmm2
  402f92:	66 0f 38 dd d8       	aesenclast %xmm0,%xmm3
  402f97:	f3 c3                	repz retq 
  402f99:	0f 1f 80 00 00 00 00 	nopl   0x0(%rax)

0000000000402fa0 <_aesni_decrypt2>:
  402fa0:	0f 10 01             	movups (%rcx),%xmm0
  402fa3:	c1 e0 04             	shl    $0x4,%eax
  402fa6:	0f 10 49 10          	movups 0x10(%rcx),%xmm1
  402faa:	0f 57 d0             	xorps  %xmm0,%xmm2
  402fad:	0f 57 d8             	xorps  %xmm0,%xmm3
  402fb0:	0f 10 41 20          	movups 0x20(%rcx),%xmm0
  402fb4:	48 8d 4c 01 20       	lea    0x20(%rcx,%rax,1),%rcx
  402fb9:	48 f7 d8             	neg    %rax
  402fbc:	48 83 c0 10          	add    $0x10,%rax
  402fc0:	66 0f 38 de d1       	aesdec %xmm1,%xmm2
  402fc5:	66 0f 38 de d9       	aesdec %xmm1,%xmm3
  402fca:	0f 10 0c 01          	movups (%rcx,%rax,1),%xmm1
  402fce:	48 83 c0 20          	add    $0x20,%rax
  402fd2:	66 0f 38 de d0       	aesdec %xmm0,%xmm2
  402fd7:	66 0f 38 de d8       	aesdec %xmm0,%xmm3
  402fdc:	0f 10 44 01 f0       	movups -0x10(%rcx,%rax,1),%xmm0
  402fe1:	75 dd                	jne    402fc0 <_aesni_decrypt2+0x20>
  402fe3:	66 0f 38 de d1       	aesdec %xmm1,%xmm2
  402fe8:	66 0f 38 de d9       	aesdec %xmm1,%xmm3
  402fed:	66 0f 38 df d0       	aesdeclast %xmm0,%xmm2
  402ff2:	66 0f 38 df d8       	aesdeclast %xmm0,%xmm3
  402ff7:	f3 c3                	repz retq 
  402ff9:	0f 1f 80 00 00 00 00 	nopl   0x0(%rax)

0000000000403000 <_aesni_encrypt3>:
  403000:	0f 10 01             	movups (%rcx),%xmm0
  403003:	c1 e0 04             	shl    $0x4,%eax
  403006:	0f 10 49 10          	movups 0x10(%rcx),%xmm1
  40300a:	0f 57 d0             	xorps  %xmm0,%xmm2
  40300d:	0f 57 d8             	xorps  %xmm0,%xmm3
  403010:	0f 57 e0             	xorps  %xmm0,%xmm4
  403013:	0f 10 41 20          	movups 0x20(%rcx),%xmm0
  403017:	48 8d 4c 01 20       	lea    0x20(%rcx,%rax,1),%rcx
  40301c:	48 f7 d8             	neg    %rax
  40301f:	48 83 c0 10          	add    $0x10,%rax
  403023:	66 0f 38 dc d1       	aesenc %xmm1,%xmm2
  403028:	66 0f 38 dc d9       	aesenc %xmm1,%xmm3
  40302d:	66 0f 38 dc e1       	aesenc %xmm1,%xmm4
  403032:	0f 10 0c 01          	movups (%rcx,%rax,1),%xmm1
  403036:	48 83 c0 20          	add    $0x20,%rax
  40303a:	66 0f 38 dc d0       	aesenc %xmm0,%xmm2
  40303f:	66 0f 38 dc d8       	aesenc %xmm0,%xmm3
  403044:	66 0f 38 dc e0       	aesenc %xmm0,%xmm4
  403049:	0f 10 44 01 f0       	movups -0x10(%rcx,%rax,1),%xmm0
  40304e:	75 d3                	jne    403023 <_aesni_encrypt3+0x23>
  403050:	66 0f 38 dc d1       	aesenc %xmm1,%xmm2
  403055:	66 0f 38 dc d9       	aesenc %xmm1,%xmm3
  40305a:	66 0f 38 dc e1       	aesenc %xmm1,%xmm4
  40305f:	66 0f 38 dd d0       	aesenclast %xmm0,%xmm2
  403064:	66 0f 38 dd d8       	aesenclast %xmm0,%xmm3
  403069:	66 0f 38 dd e0       	aesenclast %xmm0,%xmm4
  40306e:	f3 c3                	repz retq 

0000000000403070 <_aesni_decrypt3>:
  403070:	0f 10 01             	movups (%rcx),%xmm0
  403073:	c1 e0 04             	shl    $0x4,%eax
  403076:	0f 10 49 10          	movups 0x10(%rcx),%xmm1
  40307a:	0f 57 d0             	xorps  %xmm0,%xmm2
  40307d:	0f 57 d8             	xorps  %xmm0,%xmm3
  403080:	0f 57 e0             	xorps  %xmm0,%xmm4
  403083:	0f 10 41 20          	movups 0x20(%rcx),%xmm0
  403087:	48 8d 4c 01 20       	lea    0x20(%rcx,%rax,1),%rcx
  40308c:	48 f7 d8             	neg    %rax
  40308f:	48 83 c0 10          	add    $0x10,%rax
  403093:	66 0f 38 de d1       	aesdec %xmm1,%xmm2
  403098:	66 0f 38 de d9       	aesdec %xmm1,%xmm3
  40309d:	66 0f 38 de e1       	aesdec %xmm1,%xmm4
  4030a2:	0f 10 0c 01          	movups (%rcx,%rax,1),%xmm1
  4030a6:	48 83 c0 20          	add    $0x20,%rax
  4030aa:	66 0f 38 de d0       	aesdec %xmm0,%xmm2
  4030af:	66 0f 38 de d8       	aesdec %xmm0,%xmm3
  4030b4:	66 0f 38 de e0       	aesdec %xmm0,%xmm4
  4030b9:	0f 10 44 01 f0       	movups -0x10(%rcx,%rax,1),%xmm0
  4030be:	75 d3                	jne    403093 <_aesni_decrypt3+0x23>
  4030c0:	66 0f 38 de d1       	aesdec %xmm1,%xmm2
  4030c5:	66 0f 38 de d9       	aesdec %xmm1,%xmm3
  4030ca:	66 0f 38 de e1       	aesdec %xmm1,%xmm4
  4030cf:	66 0f 38 df d0       	aesdeclast %xmm0,%xmm2
  4030d4:	66 0f 38 df d8       	aesdeclast %xmm0,%xmm3
  4030d9:	66 0f 38 df e0       	aesdeclast %xmm0,%xmm4
  4030de:	f3 c3                	repz retq 

00000000004030e0 <_aesni_encrypt4>:
  4030e0:	0f 10 01             	movups (%rcx),%xmm0
  4030e3:	c1 e0 04             	shl    $0x4,%eax
  4030e6:	0f 10 49 10          	movups 0x10(%rcx),%xmm1
  4030ea:	0f 57 d0             	xorps  %xmm0,%xmm2
  4030ed:	0f 57 d8             	xorps  %xmm0,%xmm3
  4030f0:	0f 57 e0             	xorps  %xmm0,%xmm4
  4030f3:	0f 57 e8             	xorps  %xmm0,%xmm5
  4030f6:	0f 10 41 20          	movups 0x20(%rcx),%xmm0
  4030fa:	48 8d 4c 01 20       	lea    0x20(%rcx,%rax,1),%rcx
  4030ff:	48 f7 d8             	neg    %rax
  403102:	0f 1f 00             	nopl   (%rax)
  403105:	48 83 c0 10          	add    $0x10,%rax
  403109:	66 0f 38 dc d1       	aesenc %xmm1,%xmm2
  40310e:	66 0f 38 dc d9       	aesenc %xmm1,%xmm3
  403113:	66 0f 38 dc e1       	aesenc %xmm1,%xmm4
  403118:	66 0f 38 dc e9       	aesenc %xmm1,%xmm5
  40311d:	0f 10 0c 01          	movups (%rcx,%rax,1),%xmm1
  403121:	48 83 c0 20          	add    $0x20,%rax
  403125:	66 0f 38 dc d0       	aesenc %xmm0,%xmm2
  40312a:	66 0f 38 dc d8       	aesenc %xmm0,%xmm3
  40312f:	66 0f 38 dc e0       	aesenc %xmm0,%xmm4
  403134:	66 0f 38 dc e8       	aesenc %xmm0,%xmm5
  403139:	0f 10 44 01 f0       	movups -0x10(%rcx,%rax,1),%xmm0
  40313e:	75 c9                	jne    403109 <_aesni_encrypt4+0x29>
  403140:	66 0f 38 dc d1       	aesenc %xmm1,%xmm2
  403145:	66 0f 38 dc d9       	aesenc %xmm1,%xmm3
  40314a:	66 0f 38 dc e1       	aesenc %xmm1,%xmm4
  40314f:	66 0f 38 dc e9       	aesenc %xmm1,%xmm5
  403154:	66 0f 38 dd d0       	aesenclast %xmm0,%xmm2
  403159:	66 0f 38 dd d8       	aesenclast %xmm0,%xmm3
  40315e:	66 0f 38 dd e0       	aesenclast %xmm0,%xmm4
  403163:	66 0f 38 dd e8       	aesenclast %xmm0,%xmm5
  403168:	f3 c3                	repz retq 
  40316a:	66 0f 1f 44 00 00    	nopw   0x0(%rax,%rax,1)

0000000000403170 <_aesni_decrypt4>:
  403170:	0f 10 01             	movups (%rcx),%xmm0
  403173:	c1 e0 04             	shl    $0x4,%eax
  403176:	0f 10 49 10          	movups 0x10(%rcx),%xmm1
  40317a:	0f 57 d0             	xorps  %xmm0,%xmm2
  40317d:	0f 57 d8             	xorps  %xmm0,%xmm3
  403180:	0f 57 e0             	xorps  %xmm0,%xmm4
  403183:	0f 57 e8             	xorps  %xmm0,%xmm5
  403186:	0f 10 41 20          	movups 0x20(%rcx),%xmm0
  40318a:	48 8d 4c 01 20       	lea    0x20(%rcx,%rax,1),%rcx
  40318f:	48 f7 d8             	neg    %rax
  403192:	0f 1f 00             	nopl   (%rax)
  403195:	48 83 c0 10          	add    $0x10,%rax
  403199:	66 0f 38 de d1       	aesdec %xmm1,%xmm2
  40319e:	66 0f 38 de d9       	aesdec %xmm1,%xmm3
  4031a3:	66 0f 38 de e1       	aesdec %xmm1,%xmm4
  4031a8:	66 0f 38 de e9       	aesdec %xmm1,%xmm5
  4031ad:	0f 10 0c 01          	movups (%rcx,%rax,1),%xmm1
  4031b1:	48 83 c0 20          	add    $0x20,%rax
  4031b5:	66 0f 38 de d0       	aesdec %xmm0,%xmm2
  4031ba:	66 0f 38 de d8       	aesdec %xmm0,%xmm3
  4031bf:	66 0f 38 de e0       	aesdec %xmm0,%xmm4
  4031c4:	66 0f 38 de e8       	aesdec %xmm0,%xmm5
  4031c9:	0f 10 44 01 f0       	movups -0x10(%rcx,%rax,1),%xmm0
  4031ce:	75 c9                	jne    403199 <_aesni_decrypt4+0x29>
  4031d0:	66 0f 38 de d1       	aesdec %xmm1,%xmm2
  4031d5:	66 0f 38 de d9       	aesdec %xmm1,%xmm3
  4031da:	66 0f 38 de e1       	aesdec %xmm1,%xmm4
  4031df:	66 0f 38 de e9       	aesdec %xmm1,%xmm5
  4031e4:	66 0f 38 df d0       	aesdeclast %xmm0,%xmm2
  4031e9:	66 0f 38 df d8       	aesdeclast %xmm0,%xmm3
  4031ee:	66 0f 38 df e0       	aesdeclast %xmm0,%xmm4
  4031f3:	66 0f 38 df e8       	aesdeclast %xmm0,%xmm5
  4031f8:	f3 c3                	repz retq 
  4031fa:	66 0f 1f 44 00 00    	nopw   0x0(%rax,%rax,1)

0000000000403200 <_aesni_encrypt6>:
  403200:	0f 10 01             	movups (%rcx),%xmm0
  403203:	c1 e0 04             	shl    $0x4,%eax
  403206:	0f 10 49 10          	movups 0x10(%rcx),%xmm1
  40320a:	0f 57 d0             	xorps  %xmm0,%xmm2
  40320d:	66 0f ef d8          	pxor   %xmm0,%xmm3
  403211:	66 0f ef e0          	pxor   %xmm0,%xmm4
  403215:	66 0f 38 dc d1       	aesenc %xmm1,%xmm2
  40321a:	48 8d 4c 01 20       	lea    0x20(%rcx,%rax,1),%rcx
  40321f:	48 f7 d8             	neg    %rax
  403222:	66 0f 38 dc d9       	aesenc %xmm1,%xmm3
  403227:	66 0f ef e8          	pxor   %xmm0,%xmm5
  40322b:	66 0f ef f0          	pxor   %xmm0,%xmm6
  40322f:	66 0f 38 dc e1       	aesenc %xmm1,%xmm4
  403234:	66 0f ef f8          	pxor   %xmm0,%xmm7
  403238:	0f 10 04 01          	movups (%rcx,%rax,1),%xmm0
  40323c:	48 83 c0 10          	add    $0x10,%rax
  403240:	eb 1d                	jmp    40325f <_aesni_encrypt6+0x5f>
  403242:	66 66 2e 0f 1f 84 00 	data16 nopw %cs:0x0(%rax,%rax,1)
  403249:	00 00 00 00 
  40324d:	0f 1f 00             	nopl   (%rax)
  403250:	66 0f 38 dc d1       	aesenc %xmm1,%xmm2
  403255:	66 0f 38 dc d9       	aesenc %xmm1,%xmm3
  40325a:	66 0f 38 dc e1       	aesenc %xmm1,%xmm4
  40325f:	66 0f 38 dc e9       	aesenc %xmm1,%xmm5
  403264:	66 0f 38 dc f1       	aesenc %xmm1,%xmm6
  403269:	66 0f 38 dc f9       	aesenc %xmm1,%xmm7
  40326e:	0f 10 0c 01          	movups (%rcx,%rax,1),%xmm1
  403272:	48 83 c0 20          	add    $0x20,%rax
  403276:	66 0f 38 dc d0       	aesenc %xmm0,%xmm2
  40327b:	66 0f 38 dc d8       	aesenc %xmm0,%xmm3
  403280:	66 0f 38 dc e0       	aesenc %xmm0,%xmm4
  403285:	66 0f 38 dc e8       	aesenc %xmm0,%xmm5
  40328a:	66 0f 38 dc f0       	aesenc %xmm0,%xmm6
  40328f:	66 0f 38 dc f8       	aesenc %xmm0,%xmm7
  403294:	0f 10 44 01 f0       	movups -0x10(%rcx,%rax,1),%xmm0
  403299:	75 b5                	jne    403250 <_aesni_encrypt6+0x50>
  40329b:	66 0f 38 dc d1       	aesenc %xmm1,%xmm2
  4032a0:	66 0f 38 dc d9       	aesenc %xmm1,%xmm3
  4032a5:	66 0f 38 dc e1       	aesenc %xmm1,%xmm4
  4032aa:	66 0f 38 dc e9       	aesenc %xmm1,%xmm5
  4032af:	66 0f 38 dc f1       	aesenc %xmm1,%xmm6
  4032b4:	66 0f 38 dc f9       	aesenc %xmm1,%xmm7
  4032b9:	66 0f 38 dd d0       	aesenclast %xmm0,%xmm2
  4032be:	66 0f 38 dd d8       	aesenclast %xmm0,%xmm3
  4032c3:	66 0f 38 dd e0       	aesenclast %xmm0,%xmm4
  4032c8:	66 0f 38 dd e8       	aesenclast %xmm0,%xmm5
  4032cd:	66 0f 38 dd f0       	aesenclast %xmm0,%xmm6
  4032d2:	66 0f 38 dd f8       	aesenclast %xmm0,%xmm7
  4032d7:	f3 c3                	repz retq 
  4032d9:	0f 1f 80 00 00 00 00 	nopl   0x0(%rax)

00000000004032e0 <_aesni_decrypt6>:
  4032e0:	0f 10 01             	movups (%rcx),%xmm0
  4032e3:	c1 e0 04             	shl    $0x4,%eax
  4032e6:	0f 10 49 10          	movups 0x10(%rcx),%xmm1
  4032ea:	0f 57 d0             	xorps  %xmm0,%xmm2
  4032ed:	66 0f ef d8          	pxor   %xmm0,%xmm3
  4032f1:	66 0f ef e0          	pxor   %xmm0,%xmm4
  4032f5:	66 0f 38 de d1       	aesdec %xmm1,%xmm2
  4032fa:	48 8d 4c 01 20       	lea    0x20(%rcx,%rax,1),%rcx
  4032ff:	48 f7 d8             	neg    %rax
  403302:	66 0f 38 de d9       	aesdec %xmm1,%xmm3
  403307:	66 0f ef e8          	pxor   %xmm0,%xmm5
  40330b:	66 0f ef f0          	pxor   %xmm0,%xmm6
  40330f:	66 0f 38 de e1       	aesdec %xmm1,%xmm4
  403314:	66 0f ef f8          	pxor   %xmm0,%xmm7
  403318:	0f 10 04 01          	movups (%rcx,%rax,1),%xmm0
  40331c:	48 83 c0 10          	add    $0x10,%rax
  403320:	eb 1d                	jmp    40333f <_aesni_decrypt6+0x5f>
  403322:	66 66 2e 0f 1f 84 00 	data16 nopw %cs:0x0(%rax,%rax,1)
  403329:	00 00 00 00 
  40332d:	0f 1f 00             	nopl   (%rax)
  403330:	66 0f 38 de d1       	aesdec %xmm1,%xmm2
  403335:	66 0f 38 de d9       	aesdec %xmm1,%xmm3
  40333a:	66 0f 38 de e1       	aesdec %xmm1,%xmm4
  40333f:	66 0f 38 de e9       	aesdec %xmm1,%xmm5
  403344:	66 0f 38 de f1       	aesdec %xmm1,%xmm6
  403349:	66 0f 38 de f9       	aesdec %xmm1,%xmm7
  40334e:	0f 10 0c 01          	movups (%rcx,%rax,1),%xmm1
  403352:	48 83 c0 20          	add    $0x20,%rax
  403356:	66 0f 38 de d0       	aesdec %xmm0,%xmm2
  40335b:	66 0f 38 de d8       	aesdec %xmm0,%xmm3
  403360:	66 0f 38 de e0       	aesdec %xmm0,%xmm4
  403365:	66 0f 38 de e8       	aesdec %xmm0,%xmm5
  40336a:	66 0f 38 de f0       	aesdec %xmm0,%xmm6
  40336f:	66 0f 38 de f8       	aesdec %xmm0,%xmm7
  403374:	0f 10 44 01 f0       	movups -0x10(%rcx,%rax,1),%xmm0
  403379:	75 b5                	jne    403330 <_aesni_decrypt6+0x50>
  40337b:	66 0f 38 de d1       	aesdec %xmm1,%xmm2
  403380:	66 0f 38 de d9       	aesdec %xmm1,%xmm3
  403385:	66 0f 38 de e1       	aesdec %xmm1,%xmm4
  40338a:	66 0f 38 de e9       	aesdec %xmm1,%xmm5
  40338f:	66 0f 38 de f1       	aesdec %xmm1,%xmm6
  403394:	66 0f 38 de f9       	aesdec %xmm1,%xmm7
  403399:	66 0f 38 df d0       	aesdeclast %xmm0,%xmm2
  40339e:	66 0f 38 df d8       	aesdeclast %xmm0,%xmm3
  4033a3:	66 0f 38 df e0       	aesdeclast %xmm0,%xmm4
  4033a8:	66 0f 38 df e8       	aesdeclast %xmm0,%xmm5
  4033ad:	66 0f 38 df f0       	aesdeclast %xmm0,%xmm6
  4033b2:	66 0f 38 df f8       	aesdeclast %xmm0,%xmm7
  4033b7:	f3 c3                	repz retq 
  4033b9:	0f 1f 80 00 00 00 00 	nopl   0x0(%rax)

00000000004033c0 <_aesni_encrypt8>:
  4033c0:	0f 10 01             	movups (%rcx),%xmm0
  4033c3:	c1 e0 04             	shl    $0x4,%eax
  4033c6:	0f 10 49 10          	movups 0x10(%rcx),%xmm1
  4033ca:	0f 57 d0             	xorps  %xmm0,%xmm2
  4033cd:	0f 57 d8             	xorps  %xmm0,%xmm3
  4033d0:	66 0f ef e0          	pxor   %xmm0,%xmm4
  4033d4:	66 0f ef e8          	pxor   %xmm0,%xmm5
  4033d8:	66 0f ef f0          	pxor   %xmm0,%xmm6
  4033dc:	48 8d 4c 01 20       	lea    0x20(%rcx,%rax,1),%rcx
  4033e1:	48 f7 d8             	neg    %rax
  4033e4:	66 0f 38 dc d1       	aesenc %xmm1,%xmm2
  4033e9:	66 0f ef f8          	pxor   %xmm0,%xmm7
  4033ed:	66 44 0f ef c0       	pxor   %xmm0,%xmm8
  4033f2:	66 0f 38 dc d9       	aesenc %xmm1,%xmm3
  4033f7:	66 44 0f ef c8       	pxor   %xmm0,%xmm9
  4033fc:	0f 10 04 01          	movups (%rcx,%rax,1),%xmm0
  403400:	48 83 c0 10          	add    $0x10,%rax
  403404:	eb 14                	jmp    40341a <_aesni_encrypt8+0x5a>
  403406:	66 2e 0f 1f 84 00 00 	nopw   %cs:0x0(%rax,%rax,1)
  40340d:	00 00 00 
  403410:	66 0f 38 dc d1       	aesenc %xmm1,%xmm2
  403415:	66 0f 38 dc d9       	aesenc %xmm1,%xmm3
  40341a:	66 0f 38 dc e1       	aesenc %xmm1,%xmm4
  40341f:	66 0f 38 dc e9       	aesenc %xmm1,%xmm5
  403424:	66 0f 38 dc f1       	aesenc %xmm1,%xmm6
  403429:	66 0f 38 dc f9       	aesenc %xmm1,%xmm7
  40342e:	66 44 0f 38 dc c1    	aesenc %xmm1,%xmm8
  403434:	66 44 0f 38 dc c9    	aesenc %xmm1,%xmm9
  40343a:	0f 10 0c 01          	movups (%rcx,%rax,1),%xmm1
  40343e:	48 83 c0 20          	add    $0x20,%rax
  403442:	66 0f 38 dc d0       	aesenc %xmm0,%xmm2
  403447:	66 0f 38 dc d8       	aesenc %xmm0,%xmm3
  40344c:	66 0f 38 dc e0       	aesenc %xmm0,%xmm4
  403451:	66 0f 38 dc e8       	aesenc %xmm0,%xmm5
  403456:	66 0f 38 dc f0       	aesenc %xmm0,%xmm6
  40345b:	66 0f 38 dc f8       	aesenc %xmm0,%xmm7
  403460:	66 44 0f 38 dc c0    	aesenc %xmm0,%xmm8
  403466:	66 44 0f 38 dc c8    	aesenc %xmm0,%xmm9
  40346c:	0f 10 44 01 f0       	movups -0x10(%rcx,%rax,1),%xmm0
  403471:	75 9d                	jne    403410 <_aesni_encrypt8+0x50>
  403473:	66 0f 38 dc d1       	aesenc %xmm1,%xmm2
  403478:	66 0f 38 dc d9       	aesenc %xmm1,%xmm3
  40347d:	66 0f 38 dc e1       	aesenc %xmm1,%xmm4
  403482:	66 0f 38 dc e9       	aesenc %xmm1,%xmm5
  403487:	66 0f 38 dc f1       	aesenc %xmm1,%xmm6
  40348c:	66 0f 38 dc f9       	aesenc %xmm1,%xmm7
  403491:	66 44 0f 38 dc c1    	aesenc %xmm1,%xmm8
  403497:	66 44 0f 38 dc c9    	aesenc %xmm1,%xmm9
  40349d:	66 0f 38 dd d0       	aesenclast %xmm0,%xmm2
  4034a2:	66 0f 38 dd d8       	aesenclast %xmm0,%xmm3
  4034a7:	66 0f 38 dd e0       	aesenclast %xmm0,%xmm4
  4034ac:	66 0f 38 dd e8       	aesenclast %xmm0,%xmm5
  4034b1:	66 0f 38 dd f0       	aesenclast %xmm0,%xmm6
  4034b6:	66 0f 38 dd f8       	aesenclast %xmm0,%xmm7
  4034bb:	66 44 0f 38 dd c0    	aesenclast %xmm0,%xmm8
  4034c1:	66 44 0f 38 dd c8    	aesenclast %xmm0,%xmm9
  4034c7:	f3 c3                	repz retq 
  4034c9:	0f 1f 80 00 00 00 00 	nopl   0x0(%rax)

00000000004034d0 <_aesni_decrypt8>:
  4034d0:	0f 10 01             	movups (%rcx),%xmm0
  4034d3:	c1 e0 04             	shl    $0x4,%eax
  4034d6:	0f 10 49 10          	movups 0x10(%rcx),%xmm1
  4034da:	0f 57 d0             	xorps  %xmm0,%xmm2
  4034dd:	0f 57 d8             	xorps  %xmm0,%xmm3
  4034e0:	66 0f ef e0          	pxor   %xmm0,%xmm4
  4034e4:	66 0f ef e8          	pxor   %xmm0,%xmm5
  4034e8:	66 0f ef f0          	pxor   %xmm0,%xmm6
  4034ec:	48 8d 4c 01 20       	lea    0x20(%rcx,%rax,1),%rcx
  4034f1:	48 f7 d8             	neg    %rax
  4034f4:	66 0f 38 de d1       	aesdec %xmm1,%xmm2
  4034f9:	66 0f ef f8          	pxor   %xmm0,%xmm7
  4034fd:	66 44 0f ef c0       	pxor   %xmm0,%xmm8
  403502:	66 0f 38 de d9       	aesdec %xmm1,%xmm3
  403507:	66 44 0f ef c8       	pxor   %xmm0,%xmm9
  40350c:	0f 10 04 01          	movups (%rcx,%rax,1),%xmm0
  403510:	48 83 c0 10          	add    $0x10,%rax
  403514:	eb 14                	jmp    40352a <_aesni_decrypt8+0x5a>
  403516:	66 2e 0f 1f 84 00 00 	nopw   %cs:0x0(%rax,%rax,1)
  40351d:	00 00 00 
  403520:	66 0f 38 de d1       	aesdec %xmm1,%xmm2
  403525:	66 0f 38 de d9       	aesdec %xmm1,%xmm3
  40352a:	66 0f 38 de e1       	aesdec %xmm1,%xmm4
  40352f:	66 0f 38 de e9       	aesdec %xmm1,%xmm5
  403534:	66 0f 38 de f1       	aesdec %xmm1,%xmm6
  403539:	66 0f 38 de f9       	aesdec %xmm1,%xmm7
  40353e:	66 44 0f 38 de c1    	aesdec %xmm1,%xmm8
  403544:	66 44 0f 38 de c9    	aesdec %xmm1,%xmm9
  40354a:	0f 10 0c 01          	movups (%rcx,%rax,1),%xmm1
  40354e:	48 83 c0 20          	add    $0x20,%rax
  403552:	66 0f 38 de d0       	aesdec %xmm0,%xmm2
  403557:	66 0f 38 de d8       	aesdec %xmm0,%xmm3
  40355c:	66 0f 38 de e0       	aesdec %xmm0,%xmm4
  403561:	66 0f 38 de e8       	aesdec %xmm0,%xmm5
  403566:	66 0f 38 de f0       	aesdec %xmm0,%xmm6
  40356b:	66 0f 38 de f8       	aesdec %xmm0,%xmm7
  403570:	66 44 0f 38 de c0    	aesdec %xmm0,%xmm8
  403576:	66 44 0f 38 de c8    	aesdec %xmm0,%xmm9
  40357c:	0f 10 44 01 f0       	movups -0x10(%rcx,%rax,1),%xmm0
  403581:	75 9d                	jne    403520 <_aesni_decrypt8+0x50>
  403583:	66 0f 38 de d1       	aesdec %xmm1,%xmm2
  403588:	66 0f 38 de d9       	aesdec %xmm1,%xmm3
  40358d:	66 0f 38 de e1       	aesdec %xmm1,%xmm4
  403592:	66 0f 38 de e9       	aesdec %xmm1,%xmm5
  403597:	66 0f 38 de f1       	aesdec %xmm1,%xmm6
  40359c:	66 0f 38 de f9       	aesdec %xmm1,%xmm7
  4035a1:	66 44 0f 38 de c1    	aesdec %xmm1,%xmm8
  4035a7:	66 44 0f 38 de c9    	aesdec %xmm1,%xmm9
  4035ad:	66 0f 38 df d0       	aesdeclast %xmm0,%xmm2
  4035b2:	66 0f 38 df d8       	aesdeclast %xmm0,%xmm3
  4035b7:	66 0f 38 df e0       	aesdeclast %xmm0,%xmm4
  4035bc:	66 0f 38 df e8       	aesdeclast %xmm0,%xmm5
  4035c1:	66 0f 38 df f0       	aesdeclast %xmm0,%xmm6
  4035c6:	66 0f 38 df f8       	aesdeclast %xmm0,%xmm7
  4035cb:	66 44 0f 38 df c0    	aesdeclast %xmm0,%xmm8
  4035d1:	66 44 0f 38 df c8    	aesdeclast %xmm0,%xmm9
  4035d7:	f3 c3                	repz retq 
  4035d9:	0f 1f 80 00 00 00 00 	nopl   0x0(%rax)

00000000004035e0 <aesni_ecb_encrypt>:
  4035e0:	48 83 e2 f0          	and    $0xfffffffffffffff0,%rdx
  4035e4:	0f 84 4a 05 00 00    	je     403b34 <aesni_ecb_encrypt+0x554>
  4035ea:	8b 81 f0 00 00 00    	mov    0xf0(%rcx),%eax
  4035f0:	0f 10 01             	movups (%rcx),%xmm0
  4035f3:	49 89 cb             	mov    %rcx,%r11
  4035f6:	41 89 c2             	mov    %eax,%r10d
  4035f9:	45 85 c0             	test   %r8d,%r8d
  4035fc:	0f 84 4e 02 00 00    	je     403850 <aesni_ecb_encrypt+0x270>
  403602:	48 81 fa 80 00 00 00 	cmp    $0x80,%rdx
  403609:	0f 82 e8 00 00 00    	jb     4036f7 <aesni_ecb_encrypt+0x117>
  40360f:	f3 0f 6f 17          	movdqu (%rdi),%xmm2
  403613:	f3 0f 6f 5f 10       	movdqu 0x10(%rdi),%xmm3
  403618:	f3 0f 6f 67 20       	movdqu 0x20(%rdi),%xmm4
  40361d:	f3 0f 6f 6f 30       	movdqu 0x30(%rdi),%xmm5
  403622:	f3 0f 6f 77 40       	movdqu 0x40(%rdi),%xmm6
  403627:	f3 0f 6f 7f 50       	movdqu 0x50(%rdi),%xmm7
  40362c:	f3 44 0f 6f 47 60    	movdqu 0x60(%rdi),%xmm8
  403632:	f3 44 0f 6f 4f 70    	movdqu 0x70(%rdi),%xmm9
  403638:	48 8d bf 80 00 00 00 	lea    0x80(%rdi),%rdi
  40363f:	48 81 ea 80 00 00 00 	sub    $0x80,%rdx
  403646:	eb 66                	jmp    4036ae <aesni_ecb_encrypt+0xce>
  403648:	0f 1f 84 00 00 00 00 	nopl   0x0(%rax,%rax,1)
  40364f:	00 
  403650:	0f 11 16             	movups %xmm2,(%rsi)
  403653:	4c 89 d9             	mov    %r11,%rcx
  403656:	f3 0f 6f 17          	movdqu (%rdi),%xmm2
  40365a:	44 89 d0             	mov    %r10d,%eax
  40365d:	0f 11 5e 10          	movups %xmm3,0x10(%rsi)
  403661:	f3 0f 6f 5f 10       	movdqu 0x10(%rdi),%xmm3
  403666:	0f 11 66 20          	movups %xmm4,0x20(%rsi)
  40366a:	f3 0f 6f 67 20       	movdqu 0x20(%rdi),%xmm4
  40366f:	0f 11 6e 30          	movups %xmm5,0x30(%rsi)
  403673:	f3 0f 6f 6f 30       	movdqu 0x30(%rdi),%xmm5
  403678:	0f 11 76 40          	movups %xmm6,0x40(%rsi)
  40367c:	f3 0f 6f 77 40       	movdqu 0x40(%rdi),%xmm6
  403681:	0f 11 7e 50          	movups %xmm7,0x50(%rsi)
  403685:	f3 0f 6f 7f 50       	movdqu 0x50(%rdi),%xmm7
  40368a:	44 0f 11 46 60       	movups %xmm8,0x60(%rsi)
  40368f:	f3 44 0f 6f 47 60    	movdqu 0x60(%rdi),%xmm8
  403695:	44 0f 11 4e 70       	movups %xmm9,0x70(%rsi)
  40369a:	48 8d b6 80 00 00 00 	lea    0x80(%rsi),%rsi
  4036a1:	f3 44 0f 6f 4f 70    	movdqu 0x70(%rdi),%xmm9
  4036a7:	48 8d bf 80 00 00 00 	lea    0x80(%rdi),%rdi
  4036ae:	e8 0d fd ff ff       	callq  4033c0 <_aesni_encrypt8>
  4036b3:	48 81 ea 80 00 00 00 	sub    $0x80,%rdx
  4036ba:	73 94                	jae    403650 <aesni_ecb_encrypt+0x70>
  4036bc:	0f 11 16             	movups %xmm2,(%rsi)
  4036bf:	4c 89 d9             	mov    %r11,%rcx
  4036c2:	0f 11 5e 10          	movups %xmm3,0x10(%rsi)
  4036c6:	44 89 d0             	mov    %r10d,%eax
  4036c9:	0f 11 66 20          	movups %xmm4,0x20(%rsi)
  4036cd:	0f 11 6e 30          	movups %xmm5,0x30(%rsi)
  4036d1:	0f 11 76 40          	movups %xmm6,0x40(%rsi)
  4036d5:	0f 11 7e 50          	movups %xmm7,0x50(%rsi)
  4036d9:	44 0f 11 46 60       	movups %xmm8,0x60(%rsi)
  4036de:	44 0f 11 4e 70       	movups %xmm9,0x70(%rsi)
  4036e3:	48 8d b6 80 00 00 00 	lea    0x80(%rsi),%rsi
  4036ea:	48 81 c2 80 00 00 00 	add    $0x80,%rdx
  4036f1:	0f 84 3d 04 00 00    	je     403b34 <aesni_ecb_encrypt+0x554>
  4036f7:	0f 10 17             	movups (%rdi),%xmm2
  4036fa:	48 83 fa 20          	cmp    $0x20,%rdx
  4036fe:	72 70                	jb     403770 <aesni_ecb_encrypt+0x190>
  403700:	0f 10 5f 10          	movups 0x10(%rdi),%xmm3
  403704:	0f 84 96 00 00 00    	je     4037a0 <aesni_ecb_encrypt+0x1c0>
  40370a:	0f 10 67 20          	movups 0x20(%rdi),%xmm4
  40370e:	48 83 fa 40          	cmp    $0x40,%rdx
  403712:	0f 82 a8 00 00 00    	jb     4037c0 <aesni_ecb_encrypt+0x1e0>
  403718:	0f 10 6f 30          	movups 0x30(%rdi),%xmm5
  40371c:	0f 84 be 00 00 00    	je     4037e0 <aesni_ecb_encrypt+0x200>
  403722:	0f 10 77 40          	movups 0x40(%rdi),%xmm6
  403726:	48 83 fa 60          	cmp    $0x60,%rdx
  40372a:	0f 82 d0 00 00 00    	jb     403800 <aesni_ecb_encrypt+0x220>
  403730:	0f 10 7f 50          	movups 0x50(%rdi),%xmm7
  403734:	0f 84 e6 00 00 00    	je     403820 <aesni_ecb_encrypt+0x240>
  40373a:	f3 44 0f 6f 47 60    	movdqu 0x60(%rdi),%xmm8
  403740:	45 0f 57 c9          	xorps  %xmm9,%xmm9
  403744:	e8 77 fc ff ff       	callq  4033c0 <_aesni_encrypt8>
  403749:	0f 11 16             	movups %xmm2,(%rsi)
  40374c:	0f 11 5e 10          	movups %xmm3,0x10(%rsi)
  403750:	0f 11 66 20          	movups %xmm4,0x20(%rsi)
  403754:	0f 11 6e 30          	movups %xmm5,0x30(%rsi)
  403758:	0f 11 76 40          	movups %xmm6,0x40(%rsi)
  40375c:	0f 11 7e 50          	movups %xmm7,0x50(%rsi)
  403760:	44 0f 11 46 60       	movups %xmm8,0x60(%rsi)
  403765:	e9 ca 03 00 00       	jmpq   403b34 <aesni_ecb_encrypt+0x554>
  40376a:	66 0f 1f 44 00 00    	nopw   0x0(%rax,%rax,1)
  403770:	0f 10 01             	movups (%rcx),%xmm0
  403773:	0f 10 49 10          	movups 0x10(%rcx),%xmm1
  403777:	48 8d 49 20          	lea    0x20(%rcx),%rcx
  40377b:	0f 57 d0             	xorps  %xmm0,%xmm2
  40377e:	66 0f 38 dc d1       	aesenc %xmm1,%xmm2
  403783:	ff c8                	dec    %eax
  403785:	0f 10 09             	movups (%rcx),%xmm1
  403788:	48 8d 49 10          	lea    0x10(%rcx),%rcx
  40378c:	75 f0                	jne    40377e <aesni_ecb_encrypt+0x19e>
  40378e:	66 0f 38 dd d1       	aesenclast %xmm1,%xmm2
  403793:	0f 11 16             	movups %xmm2,(%rsi)
  403796:	e9 99 03 00 00       	jmpq   403b34 <aesni_ecb_encrypt+0x554>
  40379b:	0f 1f 44 00 00       	nopl   0x0(%rax,%rax,1)
  4037a0:	e8 9b f7 ff ff       	callq  402f40 <_aesni_encrypt2>
  4037a5:	0f 11 16             	movups %xmm2,(%rsi)
  4037a8:	0f 11 5e 10          	movups %xmm3,0x10(%rsi)
  4037ac:	e9 83 03 00 00       	jmpq   403b34 <aesni_ecb_encrypt+0x554>
  4037b1:	66 66 2e 0f 1f 84 00 	data16 nopw %cs:0x0(%rax,%rax,1)
  4037b8:	00 00 00 00 
  4037bc:	0f 1f 40 00          	nopl   0x0(%rax)
  4037c0:	e8 3b f8 ff ff       	callq  403000 <_aesni_encrypt3>
  4037c5:	0f 11 16             	movups %xmm2,(%rsi)
  4037c8:	0f 11 5e 10          	movups %xmm3,0x10(%rsi)
  4037cc:	0f 11 66 20          	movups %xmm4,0x20(%rsi)
  4037d0:	e9 5f 03 00 00       	jmpq   403b34 <aesni_ecb_encrypt+0x554>
  4037d5:	66 66 2e 0f 1f 84 00 	data16 nopw %cs:0x0(%rax,%rax,1)
  4037dc:	00 00 00 00 
  4037e0:	e8 fb f8 ff ff       	callq  4030e0 <_aesni_encrypt4>
  4037e5:	0f 11 16             	movups %xmm2,(%rsi)
  4037e8:	0f 11 5e 10          	movups %xmm3,0x10(%rsi)
  4037ec:	0f 11 66 20          	movups %xmm4,0x20(%rsi)
  4037f0:	0f 11 6e 30          	movups %xmm5,0x30(%rsi)
  4037f4:	e9 3b 03 00 00       	jmpq   403b34 <aesni_ecb_encrypt+0x554>
  4037f9:	0f 1f 80 00 00 00 00 	nopl   0x0(%rax)
  403800:	0f 57 ff             	xorps  %xmm7,%xmm7
  403803:	e8 f8 f9 ff ff       	callq  403200 <_aesni_encrypt6>
  403808:	0f 11 16             	movups %xmm2,(%rsi)
  40380b:	0f 11 5e 10          	movups %xmm3,0x10(%rsi)
  40380f:	0f 11 66 20          	movups %xmm4,0x20(%rsi)
  403813:	0f 11 6e 30          	movups %xmm5,0x30(%rsi)
  403817:	0f 11 76 40          	movups %xmm6,0x40(%rsi)
  40381b:	e9 14 03 00 00       	jmpq   403b34 <aesni_ecb_encrypt+0x554>
  403820:	e8 db f9 ff ff       	callq  403200 <_aesni_encrypt6>
  403825:	0f 11 16             	movups %xmm2,(%rsi)
  403828:	0f 11 5e 10          	movups %xmm3,0x10(%rsi)
  40382c:	0f 11 66 20          	movups %xmm4,0x20(%rsi)
  403830:	0f 11 6e 30          	movups %xmm5,0x30(%rsi)
  403834:	0f 11 76 40          	movups %xmm6,0x40(%rsi)
  403838:	0f 11 7e 50          	movups %xmm7,0x50(%rsi)
  40383c:	e9 f3 02 00 00       	jmpq   403b34 <aesni_ecb_encrypt+0x554>
  403841:	66 66 2e 0f 1f 84 00 	data16 nopw %cs:0x0(%rax,%rax,1)
  403848:	00 00 00 00 
  40384c:	0f 1f 40 00          	nopl   0x0(%rax)
  403850:	48 81 fa 80 00 00 00 	cmp    $0x80,%rdx
  403857:	0f 82 10 01 00 00    	jb     40396d <aesni_ecb_encrypt+0x38d>
  40385d:	f3 0f 6f 17          	movdqu (%rdi),%xmm2
  403861:	f3 0f 6f 5f 10       	movdqu 0x10(%rdi),%xmm3
  403866:	f3 0f 6f 67 20       	movdqu 0x20(%rdi),%xmm4
  40386b:	f3 0f 6f 6f 30       	movdqu 0x30(%rdi),%xmm5
  403870:	f3 0f 6f 77 40       	movdqu 0x40(%rdi),%xmm6
  403875:	f3 0f 6f 7f 50       	movdqu 0x50(%rdi),%xmm7
  40387a:	f3 44 0f 6f 47 60    	movdqu 0x60(%rdi),%xmm8
  403880:	f3 44 0f 6f 4f 70    	movdqu 0x70(%rdi),%xmm9
  403886:	48 8d bf 80 00 00 00 	lea    0x80(%rdi),%rdi
  40388d:	48 81 ea 80 00 00 00 	sub    $0x80,%rdx
  403894:	eb 68                	jmp    4038fe <aesni_ecb_encrypt+0x31e>
  403896:	66 2e 0f 1f 84 00 00 	nopw   %cs:0x0(%rax,%rax,1)
  40389d:	00 00 00 
  4038a0:	0f 11 16             	movups %xmm2,(%rsi)
  4038a3:	4c 89 d9             	mov    %r11,%rcx
  4038a6:	f3 0f 6f 17          	movdqu (%rdi),%xmm2
  4038aa:	44 89 d0             	mov    %r10d,%eax
  4038ad:	0f 11 5e 10          	movups %xmm3,0x10(%rsi)
  4038b1:	f3 0f 6f 5f 10       	movdqu 0x10(%rdi),%xmm3
  4038b6:	0f 11 66 20          	movups %xmm4,0x20(%rsi)
  4038ba:	f3 0f 6f 67 20       	movdqu 0x20(%rdi),%xmm4
  4038bf:	0f 11 6e 30          	movups %xmm5,0x30(%rsi)
  4038c3:	f3 0f 6f 6f 30       	movdqu 0x30(%rdi),%xmm5
  4038c8:	0f 11 76 40          	movups %xmm6,0x40(%rsi)
  4038cc:	f3 0f 6f 77 40       	movdqu 0x40(%rdi),%xmm6
  4038d1:	0f 11 7e 50          	movups %xmm7,0x50(%rsi)
  4038d5:	f3 0f 6f 7f 50       	movdqu 0x50(%rdi),%xmm7
  4038da:	44 0f 11 46 60       	movups %xmm8,0x60(%rsi)
  4038df:	f3 44 0f 6f 47 60    	movdqu 0x60(%rdi),%xmm8
  4038e5:	44 0f 11 4e 70       	movups %xmm9,0x70(%rsi)
  4038ea:	48 8d b6 80 00 00 00 	lea    0x80(%rsi),%rsi
  4038f1:	f3 44 0f 6f 4f 70    	movdqu 0x70(%rdi),%xmm9
  4038f7:	48 8d bf 80 00 00 00 	lea    0x80(%rdi),%rdi
  4038fe:	e8 cd fb ff ff       	callq  4034d0 <_aesni_decrypt8>
  403903:	41 0f 10 03          	movups (%r11),%xmm0
  403907:	48 81 ea 80 00 00 00 	sub    $0x80,%rdx
  40390e:	73 90                	jae    4038a0 <aesni_ecb_encrypt+0x2c0>
  403910:	0f 11 16             	movups %xmm2,(%rsi)
  403913:	66 0f ef d2          	pxor   %xmm2,%xmm2
  403917:	4c 89 d9             	mov    %r11,%rcx
  40391a:	0f 11 5e 10          	movups %xmm3,0x10(%rsi)
  40391e:	66 0f ef db          	pxor   %xmm3,%xmm3
  403922:	44 89 d0             	mov    %r10d,%eax
  403925:	0f 11 66 20          	movups %xmm4,0x20(%rsi)
  403929:	66 0f ef e4          	pxor   %xmm4,%xmm4
  40392d:	0f 11 6e 30          	movups %xmm5,0x30(%rsi)
  403931:	66 0f ef ed          	pxor   %xmm5,%xmm5
  403935:	0f 11 76 40          	movups %xmm6,0x40(%rsi)
  403939:	66 0f ef f6          	pxor   %xmm6,%xmm6
  40393d:	0f 11 7e 50          	movups %xmm7,0x50(%rsi)
  403941:	66 0f ef ff          	pxor   %xmm7,%xmm7
  403945:	44 0f 11 46 60       	movups %xmm8,0x60(%rsi)
  40394a:	66 45 0f ef c0       	pxor   %xmm8,%xmm8
  40394f:	44 0f 11 4e 70       	movups %xmm9,0x70(%rsi)
  403954:	66 45 0f ef c9       	pxor   %xmm9,%xmm9
  403959:	48 8d b6 80 00 00 00 	lea    0x80(%rsi),%rsi
  403960:	48 81 c2 80 00 00 00 	add    $0x80,%rdx
  403967:	0f 84 c7 01 00 00    	je     403b34 <aesni_ecb_encrypt+0x554>
  40396d:	0f 10 17             	movups (%rdi),%xmm2
  403970:	48 83 fa 20          	cmp    $0x20,%rdx
  403974:	0f 82 96 00 00 00    	jb     403a10 <aesni_ecb_encrypt+0x430>
  40397a:	0f 10 5f 10          	movups 0x10(%rdi),%xmm3
  40397e:	0f 84 bc 00 00 00    	je     403a40 <aesni_ecb_encrypt+0x460>
  403984:	0f 10 67 20          	movups 0x20(%rdi),%xmm4
  403988:	48 83 fa 40          	cmp    $0x40,%rdx
  40398c:	0f 82 ce 00 00 00    	jb     403a60 <aesni_ecb_encrypt+0x480>
  403992:	0f 10 6f 30          	movups 0x30(%rdi),%xmm5
  403996:	0f 84 f4 00 00 00    	je     403a90 <aesni_ecb_encrypt+0x4b0>
  40399c:	0f 10 77 40          	movups 0x40(%rdi),%xmm6
  4039a0:	48 83 fa 60          	cmp    $0x60,%rdx
  4039a4:	0f 82 16 01 00 00    	jb     403ac0 <aesni_ecb_encrypt+0x4e0>
  4039aa:	0f 10 7f 50          	movups 0x50(%rdi),%xmm7
  4039ae:	0f 84 4c 01 00 00    	je     403b00 <aesni_ecb_encrypt+0x520>
  4039b4:	44 0f 10 47 60       	movups 0x60(%rdi),%xmm8
  4039b9:	0f 10 01             	movups (%rcx),%xmm0
  4039bc:	45 0f 57 c9          	xorps  %xmm9,%xmm9
  4039c0:	e8 0b fb ff ff       	callq  4034d0 <_aesni_decrypt8>
  4039c5:	0f 11 16             	movups %xmm2,(%rsi)
  4039c8:	66 0f ef d2          	pxor   %xmm2,%xmm2
  4039cc:	0f 11 5e 10          	movups %xmm3,0x10(%rsi)
  4039d0:	66 0f ef db          	pxor   %xmm3,%xmm3
  4039d4:	0f 11 66 20          	movups %xmm4,0x20(%rsi)
  4039d8:	66 0f ef e4          	pxor   %xmm4,%xmm4
  4039dc:	0f 11 6e 30          	movups %xmm5,0x30(%rsi)
  4039e0:	66 0f ef ed          	pxor   %xmm5,%xmm5
  4039e4:	0f 11 76 40          	movups %xmm6,0x40(%rsi)
  4039e8:	66 0f ef f6          	pxor   %xmm6,%xmm6
  4039ec:	0f 11 7e 50          	movups %xmm7,0x50(%rsi)
  4039f0:	66 0f ef ff          	pxor   %xmm7,%xmm7
  4039f4:	44 0f 11 46 60       	movups %xmm8,0x60(%rsi)
  4039f9:	66 45 0f ef c0       	pxor   %xmm8,%xmm8
  4039fe:	66 45 0f ef c9       	pxor   %xmm9,%xmm9
  403a03:	e9 2c 01 00 00       	jmpq   403b34 <aesni_ecb_encrypt+0x554>
  403a08:	0f 1f 84 00 00 00 00 	nopl   0x0(%rax,%rax,1)
  403a0f:	00 
  403a10:	0f 10 01             	movups (%rcx),%xmm0
  403a13:	0f 10 49 10          	movups 0x10(%rcx),%xmm1
  403a17:	48 8d 49 20          	lea    0x20(%rcx),%rcx
  403a1b:	0f 57 d0             	xorps  %xmm0,%xmm2
  403a1e:	66 0f 38 de d1       	aesdec %xmm1,%xmm2
  403a23:	ff c8                	dec    %eax
  403a25:	0f 10 09             	movups (%rcx),%xmm1
  403a28:	48 8d 49 10          	lea    0x10(%rcx),%rcx
  403a2c:	75 f0                	jne    403a1e <aesni_ecb_encrypt+0x43e>
  403a2e:	66 0f 38 df d1       	aesdeclast %xmm1,%xmm2
  403a33:	0f 11 16             	movups %xmm2,(%rsi)
  403a36:	66 0f ef d2          	pxor   %xmm2,%xmm2
  403a3a:	e9 f5 00 00 00       	jmpq   403b34 <aesni_ecb_encrypt+0x554>
  403a3f:	90                   	nop
  403a40:	e8 5b f5 ff ff       	callq  402fa0 <_aesni_decrypt2>
  403a45:	0f 11 16             	movups %xmm2,(%rsi)
  403a48:	66 0f ef d2          	pxor   %xmm2,%xmm2
  403a4c:	0f 11 5e 10          	movups %xmm3,0x10(%rsi)
  403a50:	66 0f ef db          	pxor   %xmm3,%xmm3
  403a54:	e9 db 00 00 00       	jmpq   403b34 <aesni_ecb_encrypt+0x554>
  403a59:	0f 1f 80 00 00 00 00 	nopl   0x0(%rax)
  403a60:	e8 0b f6 ff ff       	callq  403070 <_aesni_decrypt3>
  403a65:	0f 11 16             	movups %xmm2,(%rsi)
  403a68:	66 0f ef d2          	pxor   %xmm2,%xmm2
  403a6c:	0f 11 5e 10          	movups %xmm3,0x10(%rsi)
  403a70:	66 0f ef db          	pxor   %xmm3,%xmm3
  403a74:	0f 11 66 20          	movups %xmm4,0x20(%rsi)
  403a78:	66 0f ef e4          	pxor   %xmm4,%xmm4
  403a7c:	e9 b3 00 00 00       	jmpq   403b34 <aesni_ecb_encrypt+0x554>
  403a81:	66 66 2e 0f 1f 84 00 	data16 nopw %cs:0x0(%rax,%rax,1)
  403a88:	00 00 00 00 
  403a8c:	0f 1f 40 00          	nopl   0x0(%rax)
  403a90:	e8 db f6 ff ff       	callq  403170 <_aesni_decrypt4>
  403a95:	0f 11 16             	movups %xmm2,(%rsi)
  403a98:	66 0f ef d2          	pxor   %xmm2,%xmm2
  403a9c:	0f 11 5e 10          	movups %xmm3,0x10(%rsi)
  403aa0:	66 0f ef db          	pxor   %xmm3,%xmm3
  403aa4:	0f 11 66 20          	movups %xmm4,0x20(%rsi)
  403aa8:	66 0f ef e4          	pxor   %xmm4,%xmm4
  403aac:	0f 11 6e 30          	movups %xmm5,0x30(%rsi)
  403ab0:	66 0f ef ed          	pxor   %xmm5,%xmm5
  403ab4:	eb 7e                	jmp    403b34 <aesni_ecb_encrypt+0x554>
  403ab6:	66 2e 0f 1f 84 00 00 	nopw   %cs:0x0(%rax,%rax,1)
  403abd:	00 00 00 
  403ac0:	0f 57 ff             	xorps  %xmm7,%xmm7
  403ac3:	e8 18 f8 ff ff       	callq  4032e0 <_aesni_decrypt6>
  403ac8:	0f 11 16             	movups %xmm2,(%rsi)
  403acb:	66 0f ef d2          	pxor   %xmm2,%xmm2
  403acf:	0f 11 5e 10          	movups %xmm3,0x10(%rsi)
  403ad3:	66 0f ef db          	pxor   %xmm3,%xmm3
  403ad7:	0f 11 66 20          	movups %xmm4,0x20(%rsi)
  403adb:	66 0f ef e4          	pxor   %xmm4,%xmm4
  403adf:	0f 11 6e 30          	movups %xmm5,0x30(%rsi)
  403ae3:	66 0f ef ed          	pxor   %xmm5,%xmm5
  403ae7:	0f 11 76 40          	movups %xmm6,0x40(%rsi)
  403aeb:	66 0f ef f6          	pxor   %xmm6,%xmm6
  403aef:	66 0f ef ff          	pxor   %xmm7,%xmm7
  403af3:	eb 3f                	jmp    403b34 <aesni_ecb_encrypt+0x554>
  403af5:	66 66 2e 0f 1f 84 00 	data16 nopw %cs:0x0(%rax,%rax,1)
  403afc:	00 00 00 00 
  403b00:	e8 db f7 ff ff       	callq  4032e0 <_aesni_decrypt6>
  403b05:	0f 11 16             	movups %xmm2,(%rsi)
  403b08:	66 0f ef d2          	pxor   %xmm2,%xmm2
  403b0c:	0f 11 5e 10          	movups %xmm3,0x10(%rsi)
  403b10:	66 0f ef db          	pxor   %xmm3,%xmm3
  403b14:	0f 11 66 20          	movups %xmm4,0x20(%rsi)
  403b18:	66 0f ef e4          	pxor   %xmm4,%xmm4
  403b1c:	0f 11 6e 30          	movups %xmm5,0x30(%rsi)
  403b20:	66 0f ef ed          	pxor   %xmm5,%xmm5
  403b24:	0f 11 76 40          	movups %xmm6,0x40(%rsi)
  403b28:	66 0f ef f6          	pxor   %xmm6,%xmm6
  403b2c:	0f 11 7e 50          	movups %xmm7,0x50(%rsi)
  403b30:	66 0f ef ff          	pxor   %xmm7,%xmm7
  403b34:	0f 57 c0             	xorps  %xmm0,%xmm0
  403b37:	66 0f ef c9          	pxor   %xmm1,%xmm1
  403b3b:	f3 c3                	repz retq 
  403b3d:	0f 1f 00             	nopl   (%rax)

0000000000403b40 <aesni_ccm64_encrypt_blocks>:
  403b40:	8b 81 f0 00 00 00    	mov    0xf0(%rcx),%eax
  403b46:	f3 41 0f 6f 30       	movdqu (%r8),%xmm6
  403b4b:	66 44 0f 6f 0d 4c 36 	movdqa 0x364c(%rip),%xmm9        # 4071a0 <aesni_set_encrypt_key+0x580>
  403b52:	00 00 
  403b54:	66 0f 6f 3d 24 36 00 	movdqa 0x3624(%rip),%xmm7        # 407180 <aesni_set_encrypt_key+0x560>
  403b5b:	00 
  403b5c:	c1 e0 04             	shl    $0x4,%eax
  403b5f:	41 ba 10 00 00 00    	mov    $0x10,%r10d
  403b65:	4c 8d 19             	lea    (%rcx),%r11
  403b68:	f3 41 0f 6f 19       	movdqu (%r9),%xmm3
  403b6d:	66 0f 6f d6          	movdqa %xmm6,%xmm2
  403b71:	48 8d 4c 01 20       	lea    0x20(%rcx,%rax,1),%rcx
  403b76:	66 0f 38 00 f7       	pshufb %xmm7,%xmm6
  403b7b:	49 29 c2             	sub    %rax,%r10
  403b7e:	eb 00                	jmp    403b80 <aesni_ccm64_encrypt_blocks+0x40>
  403b80:	41 0f 10 03          	movups (%r11),%xmm0
  403b84:	4c 89 d0             	mov    %r10,%rax
  403b87:	44 0f 10 07          	movups (%rdi),%xmm8
  403b8b:	0f 57 d0             	xorps  %xmm0,%xmm2
  403b8e:	41 0f 10 4b 10       	movups 0x10(%r11),%xmm1
  403b93:	41 0f 57 c0          	xorps  %xmm8,%xmm0
  403b97:	0f 57 d8             	xorps  %xmm0,%xmm3
  403b9a:	41 0f 10 43 20       	movups 0x20(%r11),%xmm0
  403b9f:	66 0f 38 dc d1       	aesenc %xmm1,%xmm2
  403ba4:	66 0f 38 dc d9       	aesenc %xmm1,%xmm3
  403ba9:	0f 10 0c 01          	movups (%rcx,%rax,1),%xmm1
  403bad:	48 83 c0 20          	add    $0x20,%rax
  403bb1:	66 0f 38 dc d0       	aesenc %xmm0,%xmm2
  403bb6:	66 0f 38 dc d8       	aesenc %xmm0,%xmm3
  403bbb:	0f 10 44 01 f0       	movups -0x10(%rcx,%rax,1),%xmm0
  403bc0:	75 dd                	jne    403b9f <aesni_ccm64_encrypt_blocks+0x5f>
  403bc2:	66 0f 38 dc d1       	aesenc %xmm1,%xmm2
  403bc7:	66 0f 38 dc d9       	aesenc %xmm1,%xmm3
  403bcc:	66 41 0f d4 f1       	paddq  %xmm9,%xmm6
  403bd1:	48 ff ca             	dec    %rdx
  403bd4:	66 0f 38 dd d0       	aesenclast %xmm0,%xmm2
  403bd9:	66 0f 38 dd d8       	aesenclast %xmm0,%xmm3
  403bde:	48 8d 7f 10          	lea    0x10(%rdi),%rdi
  403be2:	44 0f 57 c2          	xorps  %xmm2,%xmm8
  403be6:	66 0f 6f d6          	movdqa %xmm6,%xmm2
  403bea:	44 0f 11 06          	movups %xmm8,(%rsi)
  403bee:	66 0f 38 00 d7       	pshufb %xmm7,%xmm2
  403bf3:	48 8d 76 10          	lea    0x10(%rsi),%rsi
  403bf7:	75 87                	jne    403b80 <aesni_ccm64_encrypt_blocks+0x40>
  403bf9:	66 0f ef c0          	pxor   %xmm0,%xmm0
  403bfd:	66 0f ef c9          	pxor   %xmm1,%xmm1
  403c01:	66 0f ef d2          	pxor   %xmm2,%xmm2
  403c05:	41 0f 11 19          	movups %xmm3,(%r9)
  403c09:	66 0f ef db          	pxor   %xmm3,%xmm3
  403c0d:	66 45 0f ef c0       	pxor   %xmm8,%xmm8
  403c12:	66 0f ef f6          	pxor   %xmm6,%xmm6
  403c16:	f3 c3                	repz retq 
  403c18:	0f 1f 84 00 00 00 00 	nopl   0x0(%rax,%rax,1)
  403c1f:	00 

0000000000403c20 <aesni_ccm64_decrypt_blocks>:
  403c20:	8b 81 f0 00 00 00    	mov    0xf0(%rcx),%eax
  403c26:	41 0f 10 30          	movups (%r8),%xmm6
  403c2a:	f3 41 0f 6f 19       	movdqu (%r9),%xmm3
  403c2f:	66 44 0f 6f 0d 68 35 	movdqa 0x3568(%rip),%xmm9        # 4071a0 <aesni_set_encrypt_key+0x580>
  403c36:	00 00 
  403c38:	66 0f 6f 3d 40 35 00 	movdqa 0x3540(%rip),%xmm7        # 407180 <aesni_set_encrypt_key+0x560>
  403c3f:	00 
  403c40:	0f 28 d6             	movaps %xmm6,%xmm2
  403c43:	41 89 c2             	mov    %eax,%r10d
  403c46:	49 89 cb             	mov    %rcx,%r11
  403c49:	66 0f 38 00 f7       	pshufb %xmm7,%xmm6
  403c4e:	0f 10 01             	movups (%rcx),%xmm0
  403c51:	0f 10 49 10          	movups 0x10(%rcx),%xmm1
  403c55:	48 8d 49 20          	lea    0x20(%rcx),%rcx
  403c59:	0f 57 d0             	xorps  %xmm0,%xmm2
  403c5c:	66 0f 38 dc d1       	aesenc %xmm1,%xmm2
  403c61:	ff c8                	dec    %eax
  403c63:	0f 10 09             	movups (%rcx),%xmm1
  403c66:	48 8d 49 10          	lea    0x10(%rcx),%rcx
  403c6a:	75 f0                	jne    403c5c <aesni_ccm64_decrypt_blocks+0x3c>
  403c6c:	66 0f 38 dd d1       	aesenclast %xmm1,%xmm2
  403c71:	41 c1 e2 04          	shl    $0x4,%r10d
  403c75:	b8 10 00 00 00       	mov    $0x10,%eax
  403c7a:	44 0f 10 07          	movups (%rdi),%xmm8
  403c7e:	66 41 0f d4 f1       	paddq  %xmm9,%xmm6
  403c83:	48 8d 7f 10          	lea    0x10(%rdi),%rdi
  403c87:	4c 29 d0             	sub    %r10,%rax
  403c8a:	4b 8d 4c 13 20       	lea    0x20(%r11,%r10,1),%rcx
  403c8f:	49 89 c2             	mov    %rax,%r10
  403c92:	eb 0c                	jmp    403ca0 <aesni_ccm64_decrypt_blocks+0x80>
  403c94:	66 66 2e 0f 1f 84 00 	data16 nopw %cs:0x0(%rax,%rax,1)
  403c9b:	00 00 00 00 
  403c9f:	90                   	nop
  403ca0:	44 0f 57 c2          	xorps  %xmm2,%xmm8
  403ca4:	66 0f 6f d6          	movdqa %xmm6,%xmm2
  403ca8:	44 0f 11 06          	movups %xmm8,(%rsi)
  403cac:	48 8d 76 10          	lea    0x10(%rsi),%rsi
  403cb0:	66 0f 38 00 d7       	pshufb %xmm7,%xmm2
  403cb5:	48 83 ea 01          	sub    $0x1,%rdx
  403cb9:	74 75                	je     403d30 <aesni_ccm64_decrypt_blocks+0x110>
  403cbb:	41 0f 10 03          	movups (%r11),%xmm0
  403cbf:	4c 89 d0             	mov    %r10,%rax
  403cc2:	41 0f 10 4b 10       	movups 0x10(%r11),%xmm1
  403cc7:	44 0f 57 c0          	xorps  %xmm0,%xmm8
  403ccb:	0f 57 d0             	xorps  %xmm0,%xmm2
  403cce:	41 0f 57 d8          	xorps  %xmm8,%xmm3
  403cd2:	41 0f 10 43 20       	movups 0x20(%r11),%xmm0
  403cd7:	eb 07                	jmp    403ce0 <aesni_ccm64_decrypt_blocks+0xc0>
  403cd9:	0f 1f 80 00 00 00 00 	nopl   0x0(%rax)
  403ce0:	66 0f 38 dc d1       	aesenc %xmm1,%xmm2
  403ce5:	66 0f 38 dc d9       	aesenc %xmm1,%xmm3
  403cea:	0f 10 0c 01          	movups (%rcx,%rax,1),%xmm1
  403cee:	48 83 c0 20          	add    $0x20,%rax
  403cf2:	66 0f 38 dc d0       	aesenc %xmm0,%xmm2
  403cf7:	66 0f 38 dc d8       	aesenc %xmm0,%xmm3
  403cfc:	0f 10 44 01 f0       	movups -0x10(%rcx,%rax,1),%xmm0
  403d01:	75 dd                	jne    403ce0 <aesni_ccm64_decrypt_blocks+0xc0>
  403d03:	44 0f 10 07          	movups (%rdi),%xmm8
  403d07:	66 41 0f d4 f1       	paddq  %xmm9,%xmm6
  403d0c:	66 0f 38 dc d1       	aesenc %xmm1,%xmm2
  403d11:	66 0f 38 dc d9       	aesenc %xmm1,%xmm3
  403d16:	66 0f 38 dd d0       	aesenclast %xmm0,%xmm2
  403d1b:	66 0f 38 dd d8       	aesenclast %xmm0,%xmm3
  403d20:	48 8d 7f 10          	lea    0x10(%rdi),%rdi
  403d24:	e9 77 ff ff ff       	jmpq   403ca0 <aesni_ccm64_decrypt_blocks+0x80>
  403d29:	0f 1f 80 00 00 00 00 	nopl   0x0(%rax)
  403d30:	41 8b 83 f0 00 00 00 	mov    0xf0(%r11),%eax
  403d37:	41 0f 10 03          	movups (%r11),%xmm0
  403d3b:	41 0f 10 4b 10       	movups 0x10(%r11),%xmm1
  403d40:	44 0f 57 c0          	xorps  %xmm0,%xmm8
  403d44:	4d 8d 5b 20          	lea    0x20(%r11),%r11
  403d48:	41 0f 57 d8          	xorps  %xmm8,%xmm3
  403d4c:	66 0f 38 dc d9       	aesenc %xmm1,%xmm3
  403d51:	ff c8                	dec    %eax
  403d53:	41 0f 10 0b          	movups (%r11),%xmm1
  403d57:	4d 8d 5b 10          	lea    0x10(%r11),%r11
  403d5b:	75 ef                	jne    403d4c <aesni_ccm64_decrypt_blocks+0x12c>
  403d5d:	66 0f 38 dd d9       	aesenclast %xmm1,%xmm3
  403d62:	66 0f ef c0          	pxor   %xmm0,%xmm0
  403d66:	66 0f ef c9          	pxor   %xmm1,%xmm1
  403d6a:	66 0f ef d2          	pxor   %xmm2,%xmm2
  403d6e:	41 0f 11 19          	movups %xmm3,(%r9)
  403d72:	66 0f ef db          	pxor   %xmm3,%xmm3
  403d76:	66 45 0f ef c0       	pxor   %xmm8,%xmm8
  403d7b:	66 0f ef f6          	pxor   %xmm6,%xmm6
  403d7f:	f3 c3                	repz retq 
  403d81:	66 66 2e 0f 1f 84 00 	data16 nopw %cs:0x0(%rax,%rax,1)
  403d88:	00 00 00 00 
  403d8c:	0f 1f 40 00          	nopl   0x0(%rax)

0000000000403d90 <aesni_ctr32_encrypt_blocks>:
  403d90:	48 83 fa 01          	cmp    $0x1,%rdx
  403d94:	75 4a                	jne    403de0 <aesni_ctr32_encrypt_blocks+0x50>
  403d96:	41 0f 10 10          	movups (%r8),%xmm2
  403d9a:	0f 10 1f             	movups (%rdi),%xmm3
  403d9d:	8b 91 f0 00 00 00    	mov    0xf0(%rcx),%edx
  403da3:	0f 10 01             	movups (%rcx),%xmm0
  403da6:	0f 10 49 10          	movups 0x10(%rcx),%xmm1
  403daa:	48 8d 49 20          	lea    0x20(%rcx),%rcx
  403dae:	0f 57 d0             	xorps  %xmm0,%xmm2
  403db1:	66 0f 38 dc d1       	aesenc %xmm1,%xmm2
  403db6:	ff ca                	dec    %edx
  403db8:	0f 10 09             	movups (%rcx),%xmm1
  403dbb:	48 8d 49 10          	lea    0x10(%rcx),%rcx
  403dbf:	75 f0                	jne    403db1 <aesni_ctr32_encrypt_blocks+0x21>
  403dc1:	66 0f 38 dd d1       	aesenclast %xmm1,%xmm2
  403dc6:	66 0f ef c0          	pxor   %xmm0,%xmm0
  403dca:	66 0f ef c9          	pxor   %xmm1,%xmm1
  403dce:	0f 57 d3             	xorps  %xmm3,%xmm2
  403dd1:	66 0f ef db          	pxor   %xmm3,%xmm3
  403dd5:	0f 11 16             	movups %xmm2,(%rsi)
  403dd8:	0f 57 d2             	xorps  %xmm2,%xmm2
  403ddb:	e9 ed 08 00 00       	jmpq   4046cd <aesni_ctr32_encrypt_blocks+0x93d>
  403de0:	4c 8d 1c 24          	lea    (%rsp),%r11
  403de4:	55                   	push   %rbp
  403de5:	48 81 ec 80 00 00 00 	sub    $0x80,%rsp
  403dec:	48 83 e4 f0          	and    $0xfffffffffffffff0,%rsp
  403df0:	f3 41 0f 6f 10       	movdqu (%r8),%xmm2
  403df5:	f3 0f 6f 01          	movdqu (%rcx),%xmm0
  403df9:	45 8b 40 0c          	mov    0xc(%r8),%r8d
  403dfd:	66 0f ef d0          	pxor   %xmm0,%xmm2
  403e01:	8b 69 0c             	mov    0xc(%rcx),%ebp
  403e04:	66 0f 7f 14 24       	movdqa %xmm2,(%rsp)
  403e09:	41 0f c8             	bswap  %r8d
  403e0c:	66 0f 6f da          	movdqa %xmm2,%xmm3
  403e10:	66 0f 6f e2          	movdqa %xmm2,%xmm4
  403e14:	66 0f 6f ea          	movdqa %xmm2,%xmm5
  403e18:	66 0f 7f 54 24 40    	movdqa %xmm2,0x40(%rsp)
  403e1e:	66 0f 7f 54 24 50    	movdqa %xmm2,0x50(%rsp)
  403e24:	66 0f 7f 54 24 60    	movdqa %xmm2,0x60(%rsp)
  403e2a:	49 89 d2             	mov    %rdx,%r10
  403e2d:	66 0f 7f 54 24 70    	movdqa %xmm2,0x70(%rsp)
  403e33:	49 8d 40 01          	lea    0x1(%r8),%rax
  403e37:	49 8d 50 02          	lea    0x2(%r8),%rdx
  403e3b:	0f c8                	bswap  %eax
  403e3d:	0f ca                	bswap  %edx
  403e3f:	31 e8                	xor    %ebp,%eax
  403e41:	31 ea                	xor    %ebp,%edx
  403e43:	66 0f 3a 22 d8 03    	pinsrd $0x3,%eax,%xmm3
  403e49:	49 8d 40 03          	lea    0x3(%r8),%rax
  403e4d:	66 0f 7f 5c 24 10    	movdqa %xmm3,0x10(%rsp)
  403e53:	66 0f 3a 22 e2 03    	pinsrd $0x3,%edx,%xmm4
  403e59:	0f c8                	bswap  %eax
  403e5b:	4c 89 d2             	mov    %r10,%rdx
  403e5e:	4d 8d 50 04          	lea    0x4(%r8),%r10
  403e62:	66 0f 7f 64 24 20    	movdqa %xmm4,0x20(%rsp)
  403e68:	31 e8                	xor    %ebp,%eax
  403e6a:	41 0f ca             	bswap  %r10d
  403e6d:	66 0f 3a 22 e8 03    	pinsrd $0x3,%eax,%xmm5
  403e73:	41 31 ea             	xor    %ebp,%r10d
  403e76:	66 0f 7f 6c 24 30    	movdqa %xmm5,0x30(%rsp)
  403e7c:	4d 8d 48 05          	lea    0x5(%r8),%r9
  403e80:	44 89 54 24 4c       	mov    %r10d,0x4c(%rsp)
  403e85:	41 0f c9             	bswap  %r9d
  403e88:	4d 8d 50 06          	lea    0x6(%r8),%r10
  403e8c:	8b 81 f0 00 00 00    	mov    0xf0(%rcx),%eax
  403e92:	41 31 e9             	xor    %ebp,%r9d
  403e95:	41 0f ca             	bswap  %r10d
  403e98:	44 89 4c 24 5c       	mov    %r9d,0x5c(%rsp)
  403e9d:	41 31 ea             	xor    %ebp,%r10d
  403ea0:	4d 8d 48 07          	lea    0x7(%r8),%r9
  403ea4:	44 89 54 24 6c       	mov    %r10d,0x6c(%rsp)
  403ea9:	41 0f c9             	bswap  %r9d
  403eac:	44 8b 15 d1 51 20 00 	mov    0x2051d1(%rip),%r10d        # 609084 <OPENSSL_ia32cap_P+0x4>
  403eb3:	41 31 e9             	xor    %ebp,%r9d
  403eb6:	41 81 e2 00 00 40 04 	and    $0x4400000,%r10d
  403ebd:	44 89 4c 24 7c       	mov    %r9d,0x7c(%rsp)
  403ec2:	0f 10 49 10          	movups 0x10(%rcx),%xmm1
  403ec6:	66 0f 6f 74 24 40    	movdqa 0x40(%rsp),%xmm6
  403ecc:	66 0f 6f 7c 24 50    	movdqa 0x50(%rsp),%xmm7
  403ed2:	48 83 fa 08          	cmp    $0x8,%rdx
  403ed6:	0f 82 be 05 00 00    	jb     40449a <aesni_ctr32_encrypt_blocks+0x70a>
  403edc:	48 83 ea 06          	sub    $0x6,%rdx
  403ee0:	41 81 fa 00 00 40 00 	cmp    $0x400000,%r10d
  403ee7:	74 17                	je     403f00 <aesni_ctr32_encrypt_blocks+0x170>
  403ee9:	48 8d 89 80 00 00 00 	lea    0x80(%rcx),%rcx
  403ef0:	48 83 ea 02          	sub    $0x2,%rdx
  403ef4:	e9 87 01 00 00       	jmpq   404080 <aesni_ctr32_encrypt_blocks+0x2f0>
  403ef9:	0f 1f 80 00 00 00 00 	nopl   0x0(%rax)
  403f00:	c1 e0 04             	shl    $0x4,%eax
  403f03:	41 ba 30 00 00 00    	mov    $0x30,%r10d
  403f09:	0f cd                	bswap  %ebp
  403f0b:	48 8d 4c 01 20       	lea    0x20(%rcx,%rax,1),%rcx
  403f10:	49 29 c2             	sub    %rax,%r10
  403f13:	eb 0b                	jmp    403f20 <aesni_ctr32_encrypt_blocks+0x190>
  403f15:	66 66 2e 0f 1f 84 00 	data16 nopw %cs:0x0(%rax,%rax,1)
  403f1c:	00 00 00 00 
  403f20:	41 83 c0 06          	add    $0x6,%r8d
  403f24:	42 0f 10 44 11 d0    	movups -0x30(%rcx,%r10,1),%xmm0
  403f2a:	66 0f 38 dc d1       	aesenc %xmm1,%xmm2
  403f2f:	44 89 c0             	mov    %r8d,%eax
  403f32:	31 e8                	xor    %ebp,%eax
  403f34:	66 0f 38 dc d9       	aesenc %xmm1,%xmm3
  403f39:	0f 38 f1 44 24 0c    	movbe  %eax,0xc(%rsp)
  403f3f:	41 8d 40 01          	lea    0x1(%r8),%eax
  403f43:	66 0f 38 dc e1       	aesenc %xmm1,%xmm4
  403f48:	31 e8                	xor    %ebp,%eax
  403f4a:	0f 38 f1 44 24 1c    	movbe  %eax,0x1c(%rsp)
  403f50:	66 0f 38 dc e9       	aesenc %xmm1,%xmm5
  403f55:	41 8d 40 02          	lea    0x2(%r8),%eax
  403f59:	31 e8                	xor    %ebp,%eax
  403f5b:	66 0f 38 dc f1       	aesenc %xmm1,%xmm6
  403f60:	0f 38 f1 44 24 2c    	movbe  %eax,0x2c(%rsp)
  403f66:	41 8d 40 03          	lea    0x3(%r8),%eax
  403f6a:	66 0f 38 dc f9       	aesenc %xmm1,%xmm7
  403f6f:	42 0f 10 4c 11 e0    	movups -0x20(%rcx,%r10,1),%xmm1
  403f75:	31 e8                	xor    %ebp,%eax
  403f77:	66 0f 38 dc d0       	aesenc %xmm0,%xmm2
  403f7c:	0f 38 f1 44 24 3c    	movbe  %eax,0x3c(%rsp)
  403f82:	41 8d 40 04          	lea    0x4(%r8),%eax
  403f86:	66 0f 38 dc d8       	aesenc %xmm0,%xmm3
  403f8b:	31 e8                	xor    %ebp,%eax
  403f8d:	0f 38 f1 44 24 4c    	movbe  %eax,0x4c(%rsp)
  403f93:	66 0f 38 dc e0       	aesenc %xmm0,%xmm4
  403f98:	41 8d 40 05          	lea    0x5(%r8),%eax
  403f9c:	31 e8                	xor    %ebp,%eax
  403f9e:	66 0f 38 dc e8       	aesenc %xmm0,%xmm5
  403fa3:	0f 38 f1 44 24 5c    	movbe  %eax,0x5c(%rsp)
  403fa9:	4c 89 d0             	mov    %r10,%rax
  403fac:	66 0f 38 dc f0       	aesenc %xmm0,%xmm6
  403fb1:	66 0f 38 dc f8       	aesenc %xmm0,%xmm7
  403fb6:	42 0f 10 44 11 f0    	movups -0x10(%rcx,%r10,1),%xmm0
  403fbc:	e8 8f f2 ff ff       	callq  403250 <_aesni_encrypt6+0x50>
  403fc1:	f3 44 0f 6f 07       	movdqu (%rdi),%xmm8
  403fc6:	f3 44 0f 6f 4f 10    	movdqu 0x10(%rdi),%xmm9
  403fcc:	f3 44 0f 6f 57 20    	movdqu 0x20(%rdi),%xmm10
  403fd2:	f3 44 0f 6f 5f 30    	movdqu 0x30(%rdi),%xmm11
  403fd8:	f3 44 0f 6f 67 40    	movdqu 0x40(%rdi),%xmm12
  403fde:	f3 44 0f 6f 6f 50    	movdqu 0x50(%rdi),%xmm13
  403fe4:	48 8d 7f 60          	lea    0x60(%rdi),%rdi
  403fe8:	42 0f 10 4c 11 c0    	movups -0x40(%rcx,%r10,1),%xmm1
  403fee:	66 44 0f ef c2       	pxor   %xmm2,%xmm8
  403ff3:	0f 28 14 24          	movaps (%rsp),%xmm2
  403ff7:	66 44 0f ef cb       	pxor   %xmm3,%xmm9
  403ffc:	0f 28 5c 24 10       	movaps 0x10(%rsp),%xmm3
  404001:	66 44 0f ef d4       	pxor   %xmm4,%xmm10
  404006:	0f 28 64 24 20       	movaps 0x20(%rsp),%xmm4
  40400b:	66 44 0f ef dd       	pxor   %xmm5,%xmm11
  404010:	0f 28 6c 24 30       	movaps 0x30(%rsp),%xmm5
  404015:	66 44 0f ef e6       	pxor   %xmm6,%xmm12
  40401a:	0f 28 74 24 40       	movaps 0x40(%rsp),%xmm6
  40401f:	66 44 0f ef ef       	pxor   %xmm7,%xmm13
  404024:	0f 28 7c 24 50       	movaps 0x50(%rsp),%xmm7
  404029:	f3 44 0f 7f 06       	movdqu %xmm8,(%rsi)
  40402e:	f3 44 0f 7f 4e 10    	movdqu %xmm9,0x10(%rsi)
  404034:	f3 44 0f 7f 56 20    	movdqu %xmm10,0x20(%rsi)
  40403a:	f3 44 0f 7f 5e 30    	movdqu %xmm11,0x30(%rsi)
  404040:	f3 44 0f 7f 66 40    	movdqu %xmm12,0x40(%rsi)
  404046:	f3 44 0f 7f 6e 50    	movdqu %xmm13,0x50(%rsi)
  40404c:	48 8d 76 60          	lea    0x60(%rsi),%rsi
  404050:	48 83 ea 06          	sub    $0x6,%rdx
  404054:	0f 83 c6 fe ff ff    	jae    403f20 <aesni_ctr32_encrypt_blocks+0x190>
  40405a:	48 83 c2 06          	add    $0x6,%rdx
  40405e:	0f 84 f2 05 00 00    	je     404656 <aesni_ctr32_encrypt_blocks+0x8c6>
  404064:	41 8d 42 d0          	lea    -0x30(%r10),%eax
  404068:	4a 8d 4c 11 b0       	lea    -0x50(%rcx,%r10,1),%rcx
  40406d:	f7 d8                	neg    %eax
  40406f:	c1 e8 04             	shr    $0x4,%eax
  404072:	e9 23 04 00 00       	jmpq   40449a <aesni_ctr32_encrypt_blocks+0x70a>
  404077:	66 0f 1f 84 00 00 00 	nopw   0x0(%rax,%rax,1)
  40407e:	00 00 
  404080:	41 83 c0 08          	add    $0x8,%r8d
  404084:	66 44 0f 6f 44 24 60 	movdqa 0x60(%rsp),%xmm8
  40408b:	66 0f 38 dc d1       	aesenc %xmm1,%xmm2
  404090:	45 89 c1             	mov    %r8d,%r9d
  404093:	66 44 0f 6f 4c 24 70 	movdqa 0x70(%rsp),%xmm9
  40409a:	66 0f 38 dc d9       	aesenc %xmm1,%xmm3
  40409f:	41 0f c9             	bswap  %r9d
  4040a2:	0f 10 41 a0          	movups -0x60(%rcx),%xmm0
  4040a6:	66 0f 38 dc e1       	aesenc %xmm1,%xmm4
  4040ab:	41 31 e9             	xor    %ebp,%r9d
  4040ae:	90                   	nop
  4040af:	66 0f 38 dc e9       	aesenc %xmm1,%xmm5
  4040b4:	44 89 4c 24 0c       	mov    %r9d,0xc(%rsp)
  4040b9:	4d 8d 48 01          	lea    0x1(%r8),%r9
  4040bd:	66 0f 38 dc f1       	aesenc %xmm1,%xmm6
  4040c2:	66 0f 38 dc f9       	aesenc %xmm1,%xmm7
  4040c7:	66 44 0f 38 dc c1    	aesenc %xmm1,%xmm8
  4040cd:	66 44 0f 38 dc c9    	aesenc %xmm1,%xmm9
  4040d3:	0f 10 49 b0          	movups -0x50(%rcx),%xmm1
  4040d7:	41 0f c9             	bswap  %r9d
  4040da:	66 0f 38 dc d0       	aesenc %xmm0,%xmm2
  4040df:	66 0f 38 dc d8       	aesenc %xmm0,%xmm3
  4040e4:	41 31 e9             	xor    %ebp,%r9d
  4040e7:	66 90                	xchg   %ax,%ax
  4040e9:	66 0f 38 dc e0       	aesenc %xmm0,%xmm4
  4040ee:	66 0f 38 dc e8       	aesenc %xmm0,%xmm5
  4040f3:	44 89 4c 24 1c       	mov    %r9d,0x1c(%rsp)
  4040f8:	4d 8d 48 02          	lea    0x2(%r8),%r9
  4040fc:	66 0f 38 dc f0       	aesenc %xmm0,%xmm6
  404101:	66 0f 38 dc f8       	aesenc %xmm0,%xmm7
  404106:	66 44 0f 38 dc c0    	aesenc %xmm0,%xmm8
  40410c:	66 44 0f 38 dc c8    	aesenc %xmm0,%xmm9
  404112:	0f 10 41 c0          	movups -0x40(%rcx),%xmm0
  404116:	41 0f c9             	bswap  %r9d
  404119:	66 0f 38 dc d1       	aesenc %xmm1,%xmm2
  40411e:	66 0f 38 dc d9       	aesenc %xmm1,%xmm3
  404123:	41 31 e9             	xor    %ebp,%r9d
  404126:	66 90                	xchg   %ax,%ax
  404128:	66 0f 38 dc e1       	aesenc %xmm1,%xmm4
  40412d:	66 0f 38 dc e9       	aesenc %xmm1,%xmm5
  404132:	44 89 4c 24 2c       	mov    %r9d,0x2c(%rsp)
  404137:	4d 8d 48 03          	lea    0x3(%r8),%r9
  40413b:	66 0f 38 dc f1       	aesenc %xmm1,%xmm6
  404140:	66 0f 38 dc f9       	aesenc %xmm1,%xmm7
  404145:	66 44 0f 38 dc c1    	aesenc %xmm1,%xmm8
  40414b:	66 44 0f 38 dc c9    	aesenc %xmm1,%xmm9
  404151:	0f 10 49 d0          	movups -0x30(%rcx),%xmm1
  404155:	41 0f c9             	bswap  %r9d
  404158:	66 0f 38 dc d0       	aesenc %xmm0,%xmm2
  40415d:	66 0f 38 dc d8       	aesenc %xmm0,%xmm3
  404162:	41 31 e9             	xor    %ebp,%r9d
  404165:	66 90                	xchg   %ax,%ax
  404167:	66 0f 38 dc e0       	aesenc %xmm0,%xmm4
  40416c:	66 0f 38 dc e8       	aesenc %xmm0,%xmm5
  404171:	44 89 4c 24 3c       	mov    %r9d,0x3c(%rsp)
  404176:	4d 8d 48 04          	lea    0x4(%r8),%r9
  40417a:	66 0f 38 dc f0       	aesenc %xmm0,%xmm6
  40417f:	66 0f 38 dc f8       	aesenc %xmm0,%xmm7
  404184:	66 44 0f 38 dc c0    	aesenc %xmm0,%xmm8
  40418a:	66 44 0f 38 dc c8    	aesenc %xmm0,%xmm9
  404190:	0f 10 41 e0          	movups -0x20(%rcx),%xmm0
  404194:	41 0f c9             	bswap  %r9d
  404197:	66 0f 38 dc d1       	aesenc %xmm1,%xmm2
  40419c:	66 0f 38 dc d9       	aesenc %xmm1,%xmm3
  4041a1:	41 31 e9             	xor    %ebp,%r9d
  4041a4:	66 90                	xchg   %ax,%ax
  4041a6:	66 0f 38 dc e1       	aesenc %xmm1,%xmm4
  4041ab:	66 0f 38 dc e9       	aesenc %xmm1,%xmm5
  4041b0:	44 89 4c 24 4c       	mov    %r9d,0x4c(%rsp)
  4041b5:	4d 8d 48 05          	lea    0x5(%r8),%r9
  4041b9:	66 0f 38 dc f1       	aesenc %xmm1,%xmm6
  4041be:	66 0f 38 dc f9       	aesenc %xmm1,%xmm7
  4041c3:	66 44 0f 38 dc c1    	aesenc %xmm1,%xmm8
  4041c9:	66 44 0f 38 dc c9    	aesenc %xmm1,%xmm9
  4041cf:	0f 10 49 f0          	movups -0x10(%rcx),%xmm1
  4041d3:	41 0f c9             	bswap  %r9d
  4041d6:	66 0f 38 dc d0       	aesenc %xmm0,%xmm2
  4041db:	66 0f 38 dc d8       	aesenc %xmm0,%xmm3
  4041e0:	41 31 e9             	xor    %ebp,%r9d
  4041e3:	66 90                	xchg   %ax,%ax
  4041e5:	66 0f 38 dc e0       	aesenc %xmm0,%xmm4
  4041ea:	66 0f 38 dc e8       	aesenc %xmm0,%xmm5
  4041ef:	44 89 4c 24 5c       	mov    %r9d,0x5c(%rsp)
  4041f4:	4d 8d 48 06          	lea    0x6(%r8),%r9
  4041f8:	66 0f 38 dc f0       	aesenc %xmm0,%xmm6
  4041fd:	66 0f 38 dc f8       	aesenc %xmm0,%xmm7
  404202:	66 44 0f 38 dc c0    	aesenc %xmm0,%xmm8
  404208:	66 44 0f 38 dc c8    	aesenc %xmm0,%xmm9
  40420e:	0f 10 01             	movups (%rcx),%xmm0
  404211:	41 0f c9             	bswap  %r9d
  404214:	66 0f 38 dc d1       	aesenc %xmm1,%xmm2
  404219:	66 0f 38 dc d9       	aesenc %xmm1,%xmm3
  40421e:	41 31 e9             	xor    %ebp,%r9d
  404221:	66 90                	xchg   %ax,%ax
  404223:	66 0f 38 dc e1       	aesenc %xmm1,%xmm4
  404228:	66 0f 38 dc e9       	aesenc %xmm1,%xmm5
  40422d:	44 89 4c 24 6c       	mov    %r9d,0x6c(%rsp)
  404232:	4d 8d 48 07          	lea    0x7(%r8),%r9
  404236:	66 0f 38 dc f1       	aesenc %xmm1,%xmm6
  40423b:	66 0f 38 dc f9       	aesenc %xmm1,%xmm7
  404240:	66 44 0f 38 dc c1    	aesenc %xmm1,%xmm8
  404246:	66 44 0f 38 dc c9    	aesenc %xmm1,%xmm9
  40424c:	0f 10 49 10          	movups 0x10(%rcx),%xmm1
  404250:	41 0f c9             	bswap  %r9d
  404253:	66 0f 38 dc d0       	aesenc %xmm0,%xmm2
  404258:	66 0f 38 dc d8       	aesenc %xmm0,%xmm3
  40425d:	66 0f 38 dc e0       	aesenc %xmm0,%xmm4
  404262:	41 31 e9             	xor    %ebp,%r9d
  404265:	f3 44 0f 6f 17       	movdqu (%rdi),%xmm10
  40426a:	66 0f 38 dc e8       	aesenc %xmm0,%xmm5
  40426f:	44 89 4c 24 7c       	mov    %r9d,0x7c(%rsp)
  404274:	83 f8 0b             	cmp    $0xb,%eax
  404277:	66 0f 38 dc f0       	aesenc %xmm0,%xmm6
  40427c:	66 0f 38 dc f8       	aesenc %xmm0,%xmm7
  404281:	66 44 0f 38 dc c0    	aesenc %xmm0,%xmm8
  404287:	66 44 0f 38 dc c8    	aesenc %xmm0,%xmm9
  40428d:	0f 10 41 20          	movups 0x20(%rcx),%xmm0
  404291:	0f 82 c9 00 00 00    	jb     404360 <aesni_ctr32_encrypt_blocks+0x5d0>
  404297:	66 0f 38 dc d1       	aesenc %xmm1,%xmm2
  40429c:	66 0f 38 dc d9       	aesenc %xmm1,%xmm3
  4042a1:	66 0f 38 dc e1       	aesenc %xmm1,%xmm4
  4042a6:	66 0f 38 dc e9       	aesenc %xmm1,%xmm5
  4042ab:	66 0f 38 dc f1       	aesenc %xmm1,%xmm6
  4042b0:	66 0f 38 dc f9       	aesenc %xmm1,%xmm7
  4042b5:	66 44 0f 38 dc c1    	aesenc %xmm1,%xmm8
  4042bb:	66 44 0f 38 dc c9    	aesenc %xmm1,%xmm9
  4042c1:	0f 10 49 30          	movups 0x30(%rcx),%xmm1
  4042c5:	66 0f 38 dc d0       	aesenc %xmm0,%xmm2
  4042ca:	66 0f 38 dc d8       	aesenc %xmm0,%xmm3
  4042cf:	66 0f 38 dc e0       	aesenc %xmm0,%xmm4
  4042d4:	66 0f 38 dc e8       	aesenc %xmm0,%xmm5
  4042d9:	66 0f 38 dc f0       	aesenc %xmm0,%xmm6
  4042de:	66 0f 38 dc f8       	aesenc %xmm0,%xmm7
  4042e3:	66 44 0f 38 dc c0    	aesenc %xmm0,%xmm8
  4042e9:	66 44 0f 38 dc c8    	aesenc %xmm0,%xmm9
  4042ef:	0f 10 41 40          	movups 0x40(%rcx),%xmm0
  4042f3:	74 6b                	je     404360 <aesni_ctr32_encrypt_blocks+0x5d0>
  4042f5:	66 0f 38 dc d1       	aesenc %xmm1,%xmm2
  4042fa:	66 0f 38 dc d9       	aesenc %xmm1,%xmm3
  4042ff:	66 0f 38 dc e1       	aesenc %xmm1,%xmm4
  404304:	66 0f 38 dc e9       	aesenc %xmm1,%xmm5
  404309:	66 0f 38 dc f1       	aesenc %xmm1,%xmm6
  40430e:	66 0f 38 dc f9       	aesenc %xmm1,%xmm7
  404313:	66 44 0f 38 dc c1    	aesenc %xmm1,%xmm8
  404319:	66 44 0f 38 dc c9    	aesenc %xmm1,%xmm9
  40431f:	0f 10 49 50          	movups 0x50(%rcx),%xmm1
  404323:	66 0f 38 dc d0       	aesenc %xmm0,%xmm2
  404328:	66 0f 38 dc d8       	aesenc %xmm0,%xmm3
  40432d:	66 0f 38 dc e0       	aesenc %xmm0,%xmm4
  404332:	66 0f 38 dc e8       	aesenc %xmm0,%xmm5
  404337:	66 0f 38 dc f0       	aesenc %xmm0,%xmm6
  40433c:	66 0f 38 dc f8       	aesenc %xmm0,%xmm7
  404341:	66 44 0f 38 dc c0    	aesenc %xmm0,%xmm8
  404347:	66 44 0f 38 dc c8    	aesenc %xmm0,%xmm9
  40434d:	0f 10 41 60          	movups 0x60(%rcx),%xmm0
  404351:	eb 0d                	jmp    404360 <aesni_ctr32_encrypt_blocks+0x5d0>
  404353:	66 66 2e 0f 1f 84 00 	data16 nopw %cs:0x0(%rax,%rax,1)
  40435a:	00 00 00 00 
  40435e:	66 90                	xchg   %ax,%ax
  404360:	f3 44 0f 6f 5f 10    	movdqu 0x10(%rdi),%xmm11
  404366:	66 44 0f ef d0       	pxor   %xmm0,%xmm10
  40436b:	f3 44 0f 6f 67 20    	movdqu 0x20(%rdi),%xmm12
  404371:	66 44 0f ef d8       	pxor   %xmm0,%xmm11
  404376:	f3 44 0f 6f 6f 30    	movdqu 0x30(%rdi),%xmm13
  40437c:	66 44 0f ef e0       	pxor   %xmm0,%xmm12
  404381:	f3 44 0f 6f 77 40    	movdqu 0x40(%rdi),%xmm14
  404387:	66 44 0f ef e8       	pxor   %xmm0,%xmm13
  40438c:	f3 44 0f 6f 7f 50    	movdqu 0x50(%rdi),%xmm15
  404392:	66 44 0f ef f0       	pxor   %xmm0,%xmm14
  404397:	66 44 0f ef f8       	pxor   %xmm0,%xmm15
  40439c:	66 0f 38 dc d1       	aesenc %xmm1,%xmm2
  4043a1:	66 0f 38 dc d9       	aesenc %xmm1,%xmm3
  4043a6:	66 0f 38 dc e1       	aesenc %xmm1,%xmm4
  4043ab:	66 0f 38 dc e9       	aesenc %xmm1,%xmm5
  4043b0:	66 0f 38 dc f1       	aesenc %xmm1,%xmm6
  4043b5:	66 0f 38 dc f9       	aesenc %xmm1,%xmm7
  4043ba:	66 44 0f 38 dc c1    	aesenc %xmm1,%xmm8
  4043c0:	66 44 0f 38 dc c9    	aesenc %xmm1,%xmm9
  4043c6:	f3 0f 6f 4f 60       	movdqu 0x60(%rdi),%xmm1
  4043cb:	48 8d bf 80 00 00 00 	lea    0x80(%rdi),%rdi
  4043d2:	66 41 0f 38 dd d2    	aesenclast %xmm10,%xmm2
  4043d8:	66 0f ef c8          	pxor   %xmm0,%xmm1
  4043dc:	f3 44 0f 6f 57 f0    	movdqu -0x10(%rdi),%xmm10
  4043e2:	66 41 0f 38 dd db    	aesenclast %xmm11,%xmm3
  4043e8:	66 44 0f ef d0       	pxor   %xmm0,%xmm10
  4043ed:	66 44 0f 6f 1c 24    	movdqa (%rsp),%xmm11
  4043f3:	66 41 0f 38 dd e4    	aesenclast %xmm12,%xmm4
  4043f9:	66 41 0f 38 dd ed    	aesenclast %xmm13,%xmm5
  4043ff:	66 44 0f 6f 64 24 10 	movdqa 0x10(%rsp),%xmm12
  404406:	66 44 0f 6f 6c 24 20 	movdqa 0x20(%rsp),%xmm13
  40440d:	66 41 0f 38 dd f6    	aesenclast %xmm14,%xmm6
  404413:	66 41 0f 38 dd ff    	aesenclast %xmm15,%xmm7
  404419:	66 44 0f 6f 74 24 30 	movdqa 0x30(%rsp),%xmm14
  404420:	66 44 0f 6f 7c 24 40 	movdqa 0x40(%rsp),%xmm15
  404427:	66 44 0f 38 dd c1    	aesenclast %xmm1,%xmm8
  40442d:	66 0f 6f 44 24 50    	movdqa 0x50(%rsp),%xmm0
  404433:	0f 10 49 90          	movups -0x70(%rcx),%xmm1
  404437:	66 45 0f 38 dd ca    	aesenclast %xmm10,%xmm9
  40443d:	0f 11 16             	movups %xmm2,(%rsi)
  404440:	66 41 0f 6f d3       	movdqa %xmm11,%xmm2
  404445:	0f 11 5e 10          	movups %xmm3,0x10(%rsi)
  404449:	66 41 0f 6f dc       	movdqa %xmm12,%xmm3
  40444e:	0f 11 66 20          	movups %xmm4,0x20(%rsi)
  404452:	66 41 0f 6f e5       	movdqa %xmm13,%xmm4
  404457:	0f 11 6e 30          	movups %xmm5,0x30(%rsi)
  40445b:	66 41 0f 6f ee       	movdqa %xmm14,%xmm5
  404460:	0f 11 76 40          	movups %xmm6,0x40(%rsi)
  404464:	66 41 0f 6f f7       	movdqa %xmm15,%xmm6
  404469:	0f 11 7e 50          	movups %xmm7,0x50(%rsi)
  40446d:	66 0f 6f f8          	movdqa %xmm0,%xmm7
  404471:	44 0f 11 46 60       	movups %xmm8,0x60(%rsi)
  404476:	44 0f 11 4e 70       	movups %xmm9,0x70(%rsi)
  40447b:	48 8d b6 80 00 00 00 	lea    0x80(%rsi),%rsi
  404482:	48 83 ea 08          	sub    $0x8,%rdx
  404486:	0f 83 f4 fb ff ff    	jae    404080 <aesni_ctr32_encrypt_blocks+0x2f0>
  40448c:	48 83 c2 08          	add    $0x8,%rdx
  404490:	0f 84 c0 01 00 00    	je     404656 <aesni_ctr32_encrypt_blocks+0x8c6>
  404496:	48 8d 49 80          	lea    -0x80(%rcx),%rcx
  40449a:	48 8d 49 10          	lea    0x10(%rcx),%rcx
  40449e:	48 83 fa 04          	cmp    $0x4,%rdx
  4044a2:	0f 82 58 01 00 00    	jb     404600 <aesni_ctr32_encrypt_blocks+0x870>
  4044a8:	0f 84 d2 00 00 00    	je     404580 <aesni_ctr32_encrypt_blocks+0x7f0>
  4044ae:	c1 e0 04             	shl    $0x4,%eax
  4044b1:	66 44 0f 6f 44 24 60 	movdqa 0x60(%rsp),%xmm8
  4044b8:	66 45 0f ef c9       	pxor   %xmm9,%xmm9
  4044bd:	0f 10 41 10          	movups 0x10(%rcx),%xmm0
  4044c1:	66 0f 38 dc d1       	aesenc %xmm1,%xmm2
  4044c6:	66 0f 38 dc d9       	aesenc %xmm1,%xmm3
  4044cb:	48 8d 4c 01 10       	lea    0x10(%rcx,%rax,1),%rcx
  4044d0:	48 f7 d8             	neg    %rax
  4044d3:	66 0f 38 dc e1       	aesenc %xmm1,%xmm4
  4044d8:	48 83 c0 10          	add    $0x10,%rax
  4044dc:	44 0f 10 17          	movups (%rdi),%xmm10
  4044e0:	66 0f 38 dc e9       	aesenc %xmm1,%xmm5
  4044e5:	66 0f 38 dc f1       	aesenc %xmm1,%xmm6
  4044ea:	44 0f 10 5f 10       	movups 0x10(%rdi),%xmm11
  4044ef:	44 0f 10 67 20       	movups 0x20(%rdi),%xmm12
  4044f4:	66 0f 38 dc f9       	aesenc %xmm1,%xmm7
  4044f9:	66 44 0f 38 dc c1    	aesenc %xmm1,%xmm8
  4044ff:	e8 36 ef ff ff       	callq  40343a <_aesni_encrypt8+0x7a>
  404504:	f3 44 0f 6f 6f 30    	movdqu 0x30(%rdi),%xmm13
  40450a:	66 41 0f ef d2       	pxor   %xmm10,%xmm2
  40450f:	f3 44 0f 6f 57 40    	movdqu 0x40(%rdi),%xmm10
  404515:	66 41 0f ef db       	pxor   %xmm11,%xmm3
  40451a:	f3 0f 7f 16          	movdqu %xmm2,(%rsi)
  40451e:	66 41 0f ef e4       	pxor   %xmm12,%xmm4
  404523:	f3 0f 7f 5e 10       	movdqu %xmm3,0x10(%rsi)
  404528:	66 41 0f ef ed       	pxor   %xmm13,%xmm5
  40452d:	f3 0f 7f 66 20       	movdqu %xmm4,0x20(%rsi)
  404532:	66 41 0f ef f2       	pxor   %xmm10,%xmm6
  404537:	f3 0f 7f 6e 30       	movdqu %xmm5,0x30(%rsi)
  40453c:	f3 0f 7f 76 40       	movdqu %xmm6,0x40(%rsi)
  404541:	48 83 fa 06          	cmp    $0x6,%rdx
  404545:	0f 82 0b 01 00 00    	jb     404656 <aesni_ctr32_encrypt_blocks+0x8c6>
  40454b:	44 0f 10 5f 50       	movups 0x50(%rdi),%xmm11
  404550:	41 0f 57 fb          	xorps  %xmm11,%xmm7
  404554:	0f 11 7e 50          	movups %xmm7,0x50(%rsi)
  404558:	0f 84 f8 00 00 00    	je     404656 <aesni_ctr32_encrypt_blocks+0x8c6>
  40455e:	44 0f 10 67 60       	movups 0x60(%rdi),%xmm12
  404563:	45 0f 57 c4          	xorps  %xmm12,%xmm8
  404567:	44 0f 11 46 60       	movups %xmm8,0x60(%rsi)
  40456c:	e9 e5 00 00 00       	jmpq   404656 <aesni_ctr32_encrypt_blocks+0x8c6>
  404571:	66 66 2e 0f 1f 84 00 	data16 nopw %cs:0x0(%rax,%rax,1)
  404578:	00 00 00 00 
  40457c:	0f 1f 40 00          	nopl   0x0(%rax)
  404580:	66 0f 38 dc d1       	aesenc %xmm1,%xmm2
  404585:	48 8d 49 10          	lea    0x10(%rcx),%rcx
  404589:	ff c8                	dec    %eax
  40458b:	66 0f 38 dc d9       	aesenc %xmm1,%xmm3
  404590:	66 0f 38 dc e1       	aesenc %xmm1,%xmm4
  404595:	66 0f 38 dc e9       	aesenc %xmm1,%xmm5
  40459a:	0f 10 09             	movups (%rcx),%xmm1
  40459d:	75 e1                	jne    404580 <aesni_ctr32_encrypt_blocks+0x7f0>
  40459f:	66 0f 38 dd d1       	aesenclast %xmm1,%xmm2
  4045a4:	66 0f 38 dd d9       	aesenclast %xmm1,%xmm3
  4045a9:	44 0f 10 17          	movups (%rdi),%xmm10
  4045ad:	44 0f 10 5f 10       	movups 0x10(%rdi),%xmm11
  4045b2:	66 0f 38 dd e1       	aesenclast %xmm1,%xmm4
  4045b7:	66 0f 38 dd e9       	aesenclast %xmm1,%xmm5
  4045bc:	44 0f 10 67 20       	movups 0x20(%rdi),%xmm12
  4045c1:	44 0f 10 6f 30       	movups 0x30(%rdi),%xmm13
  4045c6:	41 0f 57 d2          	xorps  %xmm10,%xmm2
  4045ca:	0f 11 16             	movups %xmm2,(%rsi)
  4045cd:	41 0f 57 db          	xorps  %xmm11,%xmm3
  4045d1:	0f 11 5e 10          	movups %xmm3,0x10(%rsi)
  4045d5:	66 41 0f ef e4       	pxor   %xmm12,%xmm4
  4045da:	f3 0f 7f 66 20       	movdqu %xmm4,0x20(%rsi)
  4045df:	66 41 0f ef ed       	pxor   %xmm13,%xmm5
  4045e4:	f3 0f 7f 6e 30       	movdqu %xmm5,0x30(%rsi)
  4045e9:	eb 6b                	jmp    404656 <aesni_ctr32_encrypt_blocks+0x8c6>
  4045eb:	66 66 2e 0f 1f 84 00 	data16 nopw %cs:0x0(%rax,%rax,1)
  4045f2:	00 00 00 00 
  4045f6:	66 2e 0f 1f 84 00 00 	nopw   %cs:0x0(%rax,%rax,1)
  4045fd:	00 00 00 
  404600:	66 0f 38 dc d1       	aesenc %xmm1,%xmm2
  404605:	48 8d 49 10          	lea    0x10(%rcx),%rcx
  404609:	ff c8                	dec    %eax
  40460b:	66 0f 38 dc d9       	aesenc %xmm1,%xmm3
  404610:	66 0f 38 dc e1       	aesenc %xmm1,%xmm4
  404615:	0f 10 09             	movups (%rcx),%xmm1
  404618:	75 e6                	jne    404600 <aesni_ctr32_encrypt_blocks+0x870>
  40461a:	66 0f 38 dd d1       	aesenclast %xmm1,%xmm2
  40461f:	66 0f 38 dd d9       	aesenclast %xmm1,%xmm3
  404624:	66 0f 38 dd e1       	aesenclast %xmm1,%xmm4
  404629:	44 0f 10 17          	movups (%rdi),%xmm10
  40462d:	41 0f 57 d2          	xorps  %xmm10,%xmm2
  404631:	0f 11 16             	movups %xmm2,(%rsi)
  404634:	48 83 fa 02          	cmp    $0x2,%rdx
  404638:	72 1c                	jb     404656 <aesni_ctr32_encrypt_blocks+0x8c6>
  40463a:	44 0f 10 5f 10       	movups 0x10(%rdi),%xmm11
  40463f:	41 0f 57 db          	xorps  %xmm11,%xmm3
  404643:	0f 11 5e 10          	movups %xmm3,0x10(%rsi)
  404647:	74 0d                	je     404656 <aesni_ctr32_encrypt_blocks+0x8c6>
  404649:	44 0f 10 67 20       	movups 0x20(%rdi),%xmm12
  40464e:	41 0f 57 e4          	xorps  %xmm12,%xmm4
  404652:	0f 11 66 20          	movups %xmm4,0x20(%rsi)
  404656:	0f 57 c0             	xorps  %xmm0,%xmm0
  404659:	31 ed                	xor    %ebp,%ebp
  40465b:	66 0f ef c9          	pxor   %xmm1,%xmm1
  40465f:	66 0f ef d2          	pxor   %xmm2,%xmm2
  404663:	66 0f ef db          	pxor   %xmm3,%xmm3
  404667:	66 0f ef e4          	pxor   %xmm4,%xmm4
  40466b:	66 0f ef ed          	pxor   %xmm5,%xmm5
  40466f:	66 0f ef f6          	pxor   %xmm6,%xmm6
  404673:	66 0f ef ff          	pxor   %xmm7,%xmm7
  404677:	0f 29 04 24          	movaps %xmm0,(%rsp)
  40467b:	66 45 0f ef c0       	pxor   %xmm8,%xmm8
  404680:	0f 29 44 24 10       	movaps %xmm0,0x10(%rsp)
  404685:	66 45 0f ef c9       	pxor   %xmm9,%xmm9
  40468a:	0f 29 44 24 20       	movaps %xmm0,0x20(%rsp)
  40468f:	66 45 0f ef d2       	pxor   %xmm10,%xmm10
  404694:	0f 29 44 24 30       	movaps %xmm0,0x30(%rsp)
  404699:	66 45 0f ef db       	pxor   %xmm11,%xmm11
  40469e:	0f 29 44 24 40       	movaps %xmm0,0x40(%rsp)
  4046a3:	66 45 0f ef e4       	pxor   %xmm12,%xmm12
  4046a8:	0f 29 44 24 50       	movaps %xmm0,0x50(%rsp)
  4046ad:	66 45 0f ef ed       	pxor   %xmm13,%xmm13
  4046b2:	0f 29 44 24 60       	movaps %xmm0,0x60(%rsp)
  4046b7:	66 45 0f ef f6       	pxor   %xmm14,%xmm14
  4046bc:	0f 29 44 24 70       	movaps %xmm0,0x70(%rsp)
  4046c1:	66 45 0f ef ff       	pxor   %xmm15,%xmm15
  4046c6:	49 8b 6b f8          	mov    -0x8(%r11),%rbp
  4046ca:	49 8d 23             	lea    (%r11),%rsp
  4046cd:	f3 c3                	repz retq 
  4046cf:	90                   	nop

00000000004046d0 <aesni_xts_encrypt>:
  4046d0:	4c 8d 1c 24          	lea    (%rsp),%r11
  4046d4:	55                   	push   %rbp
  4046d5:	48 83 ec 70          	sub    $0x70,%rsp
  4046d9:	48 83 e4 f0          	and    $0xfffffffffffffff0,%rsp
  4046dd:	41 0f 10 11          	movups (%r9),%xmm2
  4046e1:	41 8b 80 f0 00 00 00 	mov    0xf0(%r8),%eax
  4046e8:	44 8b 91 f0 00 00 00 	mov    0xf0(%rcx),%r10d
  4046ef:	41 0f 10 00          	movups (%r8),%xmm0
  4046f3:	41 0f 10 48 10       	movups 0x10(%r8),%xmm1
  4046f8:	4d 8d 40 20          	lea    0x20(%r8),%r8
  4046fc:	0f 57 d0             	xorps  %xmm0,%xmm2
  4046ff:	66 0f 38 dc d1       	aesenc %xmm1,%xmm2
  404704:	ff c8                	dec    %eax
  404706:	41 0f 10 08          	movups (%r8),%xmm1
  40470a:	4d 8d 40 10          	lea    0x10(%r8),%r8
  40470e:	75 ef                	jne    4046ff <aesni_xts_encrypt+0x2f>
  404710:	66 0f 38 dd d1       	aesenclast %xmm1,%xmm2
  404715:	0f 10 01             	movups (%rcx),%xmm0
  404718:	48 89 cd             	mov    %rcx,%rbp
  40471b:	44 89 d0             	mov    %r10d,%eax
  40471e:	41 c1 e2 04          	shl    $0x4,%r10d
  404722:	49 89 d1             	mov    %rdx,%r9
  404725:	48 83 e2 f0          	and    $0xfffffffffffffff0,%rdx
  404729:	42 0f 10 4c 11 10    	movups 0x10(%rcx,%r10,1),%xmm1
  40472f:	66 44 0f 6f 05 78 2a 	movdqa 0x2a78(%rip),%xmm8        # 4071b0 <aesni_set_encrypt_key+0x590>
  404736:	00 00 
  404738:	66 44 0f 6f fa       	movdqa %xmm2,%xmm15
  40473d:	66 44 0f 70 ca 5f    	pshufd $0x5f,%xmm2,%xmm9
  404743:	66 0f ef c8          	pxor   %xmm0,%xmm1
  404747:	66 45 0f 6f f1       	movdqa %xmm9,%xmm14
  40474c:	66 45 0f fe c9       	paddd  %xmm9,%xmm9
  404751:	66 45 0f 6f d7       	movdqa %xmm15,%xmm10
  404756:	66 41 0f 72 e6 1f    	psrad  $0x1f,%xmm14
  40475c:	66 45 0f d4 ff       	paddq  %xmm15,%xmm15
  404761:	66 45 0f db f0       	pand   %xmm8,%xmm14
  404766:	66 44 0f ef d0       	pxor   %xmm0,%xmm10
  40476b:	66 45 0f ef fe       	pxor   %xmm14,%xmm15
  404770:	66 45 0f 6f f1       	movdqa %xmm9,%xmm14
  404775:	66 45 0f fe c9       	paddd  %xmm9,%xmm9
  40477a:	66 45 0f 6f df       	movdqa %xmm15,%xmm11
  40477f:	66 41 0f 72 e6 1f    	psrad  $0x1f,%xmm14
  404785:	66 45 0f d4 ff       	paddq  %xmm15,%xmm15
  40478a:	66 45 0f db f0       	pand   %xmm8,%xmm14
  40478f:	66 44 0f ef d8       	pxor   %xmm0,%xmm11
  404794:	66 45 0f ef fe       	pxor   %xmm14,%xmm15
  404799:	66 45 0f 6f f1       	movdqa %xmm9,%xmm14
  40479e:	66 45 0f fe c9       	paddd  %xmm9,%xmm9
  4047a3:	66 45 0f 6f e7       	movdqa %xmm15,%xmm12
  4047a8:	66 41 0f 72 e6 1f    	psrad  $0x1f,%xmm14
  4047ae:	66 45 0f d4 ff       	paddq  %xmm15,%xmm15
  4047b3:	66 45 0f db f0       	pand   %xmm8,%xmm14
  4047b8:	66 44 0f ef e0       	pxor   %xmm0,%xmm12
  4047bd:	66 45 0f ef fe       	pxor   %xmm14,%xmm15
  4047c2:	66 45 0f 6f f1       	movdqa %xmm9,%xmm14
  4047c7:	66 45 0f fe c9       	paddd  %xmm9,%xmm9
  4047cc:	66 45 0f 6f ef       	movdqa %xmm15,%xmm13
  4047d1:	66 41 0f 72 e6 1f    	psrad  $0x1f,%xmm14
  4047d7:	66 45 0f d4 ff       	paddq  %xmm15,%xmm15
  4047dc:	66 45 0f db f0       	pand   %xmm8,%xmm14
  4047e1:	66 44 0f ef e8       	pxor   %xmm0,%xmm13
  4047e6:	66 45 0f ef fe       	pxor   %xmm14,%xmm15
  4047eb:	66 45 0f 6f f7       	movdqa %xmm15,%xmm14
  4047f0:	66 41 0f 72 e1 1f    	psrad  $0x1f,%xmm9
  4047f6:	66 45 0f d4 ff       	paddq  %xmm15,%xmm15
  4047fb:	66 45 0f db c8       	pand   %xmm8,%xmm9
  404800:	66 44 0f ef f0       	pxor   %xmm0,%xmm14
  404805:	66 45 0f ef f9       	pxor   %xmm9,%xmm15
  40480a:	0f 29 4c 24 60       	movaps %xmm1,0x60(%rsp)
  40480f:	48 83 ea 60          	sub    $0x60,%rdx
  404813:	0f 82 47 03 00 00    	jb     404b60 <aesni_xts_encrypt+0x490>
  404819:	b8 70 00 00 00       	mov    $0x70,%eax
  40481e:	4a 8d 4c 15 20       	lea    0x20(%rbp,%r10,1),%rcx
  404823:	4c 29 d0             	sub    %r10,%rax
  404826:	0f 10 4d 10          	movups 0x10(%rbp),%xmm1
  40482a:	49 89 c2             	mov    %rax,%r10
  40482d:	4c 8d 05 7c 29 00 00 	lea    0x297c(%rip),%r8        # 4071b0 <aesni_set_encrypt_key+0x590>
  404834:	eb 0a                	jmp    404840 <aesni_xts_encrypt+0x170>
  404836:	66 2e 0f 1f 84 00 00 	nopw   %cs:0x0(%rax,%rax,1)
  40483d:	00 00 00 
  404840:	f3 0f 6f 17          	movdqu (%rdi),%xmm2
  404844:	66 44 0f 6f c0       	movdqa %xmm0,%xmm8
  404849:	f3 0f 6f 5f 10       	movdqu 0x10(%rdi),%xmm3
  40484e:	66 41 0f ef d2       	pxor   %xmm10,%xmm2
  404853:	f3 0f 6f 67 20       	movdqu 0x20(%rdi),%xmm4
  404858:	66 41 0f ef db       	pxor   %xmm11,%xmm3
  40485d:	66 0f 38 dc d1       	aesenc %xmm1,%xmm2
  404862:	f3 0f 6f 6f 30       	movdqu 0x30(%rdi),%xmm5
  404867:	66 41 0f ef e4       	pxor   %xmm12,%xmm4
  40486c:	66 0f 38 dc d9       	aesenc %xmm1,%xmm3
  404871:	f3 0f 6f 77 40       	movdqu 0x40(%rdi),%xmm6
  404876:	66 41 0f ef ed       	pxor   %xmm13,%xmm5
  40487b:	66 0f 38 dc e1       	aesenc %xmm1,%xmm4
  404880:	f3 0f 6f 7f 50       	movdqu 0x50(%rdi),%xmm7
  404885:	66 45 0f ef c7       	pxor   %xmm15,%xmm8
  40488a:	66 44 0f 6f 4c 24 60 	movdqa 0x60(%rsp),%xmm9
  404891:	66 41 0f ef f6       	pxor   %xmm14,%xmm6
  404896:	66 0f 38 dc e9       	aesenc %xmm1,%xmm5
  40489b:	0f 10 45 20          	movups 0x20(%rbp),%xmm0
  40489f:	48 8d 7f 60          	lea    0x60(%rdi),%rdi
  4048a3:	66 41 0f ef f8       	pxor   %xmm8,%xmm7
  4048a8:	66 45 0f ef d1       	pxor   %xmm9,%xmm10
  4048ad:	66 0f 38 dc f1       	aesenc %xmm1,%xmm6
  4048b2:	66 45 0f ef d9       	pxor   %xmm9,%xmm11
  4048b7:	66 44 0f 7f 14 24    	movdqa %xmm10,(%rsp)
  4048bd:	66 0f 38 dc f9       	aesenc %xmm1,%xmm7
  4048c2:	0f 10 4d 30          	movups 0x30(%rbp),%xmm1
  4048c6:	66 45 0f ef e1       	pxor   %xmm9,%xmm12
  4048cb:	66 0f 38 dc d0       	aesenc %xmm0,%xmm2
  4048d0:	66 45 0f ef e9       	pxor   %xmm9,%xmm13
  4048d5:	66 44 0f 7f 5c 24 10 	movdqa %xmm11,0x10(%rsp)
  4048dc:	66 0f 38 dc d8       	aesenc %xmm0,%xmm3
  4048e1:	66 45 0f ef f1       	pxor   %xmm9,%xmm14
  4048e6:	66 44 0f 7f 64 24 20 	movdqa %xmm12,0x20(%rsp)
  4048ed:	66 0f 38 dc e0       	aesenc %xmm0,%xmm4
  4048f2:	66 0f 38 dc e8       	aesenc %xmm0,%xmm5
  4048f7:	66 45 0f ef c1       	pxor   %xmm9,%xmm8
  4048fc:	66 44 0f 7f 74 24 40 	movdqa %xmm14,0x40(%rsp)
  404903:	66 0f 38 dc f0       	aesenc %xmm0,%xmm6
  404908:	66 0f 38 dc f8       	aesenc %xmm0,%xmm7
  40490d:	0f 10 45 40          	movups 0x40(%rbp),%xmm0
  404911:	66 44 0f 7f 44 24 50 	movdqa %xmm8,0x50(%rsp)
  404918:	66 45 0f 70 cf 5f    	pshufd $0x5f,%xmm15,%xmm9
  40491e:	eb 00                	jmp    404920 <aesni_xts_encrypt+0x250>
  404920:	66 0f 38 dc d1       	aesenc %xmm1,%xmm2
  404925:	66 0f 38 dc d9       	aesenc %xmm1,%xmm3
  40492a:	66 0f 38 dc e1       	aesenc %xmm1,%xmm4
  40492f:	66 0f 38 dc e9       	aesenc %xmm1,%xmm5
  404934:	66 0f 38 dc f1       	aesenc %xmm1,%xmm6
  404939:	66 0f 38 dc f9       	aesenc %xmm1,%xmm7
  40493e:	0f 10 4c 01 c0       	movups -0x40(%rcx,%rax,1),%xmm1
  404943:	48 83 c0 20          	add    $0x20,%rax
  404947:	66 0f 38 dc d0       	aesenc %xmm0,%xmm2
  40494c:	66 0f 38 dc d8       	aesenc %xmm0,%xmm3
  404951:	66 0f 38 dc e0       	aesenc %xmm0,%xmm4
  404956:	66 0f 38 dc e8       	aesenc %xmm0,%xmm5
  40495b:	66 0f 38 dc f0       	aesenc %xmm0,%xmm6
  404960:	66 0f 38 dc f8       	aesenc %xmm0,%xmm7
  404965:	0f 10 44 01 b0       	movups -0x50(%rcx,%rax,1),%xmm0
  40496a:	75 b4                	jne    404920 <aesni_xts_encrypt+0x250>
  40496c:	66 45 0f 6f 00       	movdqa (%r8),%xmm8
  404971:	66 45 0f 6f f1       	movdqa %xmm9,%xmm14
  404976:	66 45 0f fe c9       	paddd  %xmm9,%xmm9
  40497b:	66 0f 38 dc d1       	aesenc %xmm1,%xmm2
  404980:	66 45 0f d4 ff       	paddq  %xmm15,%xmm15
  404985:	66 41 0f 72 e6 1f    	psrad  $0x1f,%xmm14
  40498b:	66 0f 38 dc d9       	aesenc %xmm1,%xmm3
  404990:	66 45 0f db f0       	pand   %xmm8,%xmm14
  404995:	44 0f 10 55 00       	movups 0x0(%rbp),%xmm10
  40499a:	66 0f 38 dc e1       	aesenc %xmm1,%xmm4
  40499f:	66 0f 38 dc e9       	aesenc %xmm1,%xmm5
  4049a4:	66 0f 38 dc f1       	aesenc %xmm1,%xmm6
  4049a9:	66 45 0f ef fe       	pxor   %xmm14,%xmm15
  4049ae:	45 0f 28 da          	movaps %xmm10,%xmm11
  4049b2:	66 0f 38 dc f9       	aesenc %xmm1,%xmm7
  4049b7:	0f 10 49 c0          	movups -0x40(%rcx),%xmm1
  4049bb:	66 45 0f 6f f1       	movdqa %xmm9,%xmm14
  4049c0:	66 0f 38 dc d0       	aesenc %xmm0,%xmm2
  4049c5:	66 45 0f fe c9       	paddd  %xmm9,%xmm9
  4049ca:	66 45 0f ef d7       	pxor   %xmm15,%xmm10
  4049cf:	66 0f 38 dc d8       	aesenc %xmm0,%xmm3
  4049d4:	66 41 0f 72 e6 1f    	psrad  $0x1f,%xmm14
  4049da:	66 45 0f d4 ff       	paddq  %xmm15,%xmm15
  4049df:	66 0f 38 dc e0       	aesenc %xmm0,%xmm4
  4049e4:	66 0f 38 dc e8       	aesenc %xmm0,%xmm5
  4049e9:	66 45 0f db f0       	pand   %xmm8,%xmm14
  4049ee:	45 0f 28 e3          	movaps %xmm11,%xmm12
  4049f2:	66 0f 38 dc f0       	aesenc %xmm0,%xmm6
  4049f7:	66 45 0f ef fe       	pxor   %xmm14,%xmm15
  4049fc:	66 45 0f 6f f1       	movdqa %xmm9,%xmm14
  404a01:	66 0f 38 dc f8       	aesenc %xmm0,%xmm7
  404a06:	0f 10 41 d0          	movups -0x30(%rcx),%xmm0
  404a0a:	66 45 0f fe c9       	paddd  %xmm9,%xmm9
  404a0f:	66 0f 38 dc d1       	aesenc %xmm1,%xmm2
  404a14:	66 45 0f ef df       	pxor   %xmm15,%xmm11
  404a19:	66 41 0f 72 e6 1f    	psrad  $0x1f,%xmm14
  404a1f:	66 0f 38 dc d9       	aesenc %xmm1,%xmm3
  404a24:	66 45 0f d4 ff       	paddq  %xmm15,%xmm15
  404a29:	66 45 0f db f0       	pand   %xmm8,%xmm14
  404a2e:	66 0f 38 dc e1       	aesenc %xmm1,%xmm4
  404a33:	66 0f 38 dc e9       	aesenc %xmm1,%xmm5
  404a38:	66 44 0f 7f 6c 24 30 	movdqa %xmm13,0x30(%rsp)
  404a3f:	66 45 0f ef fe       	pxor   %xmm14,%xmm15
  404a44:	66 0f 38 dc f1       	aesenc %xmm1,%xmm6
  404a49:	45 0f 28 ec          	movaps %xmm12,%xmm13
  404a4d:	66 45 0f 6f f1       	movdqa %xmm9,%xmm14
  404a52:	66 0f 38 dc f9       	aesenc %xmm1,%xmm7
  404a57:	0f 10 49 e0          	movups -0x20(%rcx),%xmm1
  404a5b:	66 45 0f fe c9       	paddd  %xmm9,%xmm9
  404a60:	66 0f 38 dc d0       	aesenc %xmm0,%xmm2
  404a65:	66 45 0f ef e7       	pxor   %xmm15,%xmm12
  404a6a:	66 41 0f 72 e6 1f    	psrad  $0x1f,%xmm14
  404a70:	66 0f 38 dc d8       	aesenc %xmm0,%xmm3
  404a75:	66 45 0f d4 ff       	paddq  %xmm15,%xmm15
  404a7a:	66 45 0f db f0       	pand   %xmm8,%xmm14
  404a7f:	66 0f 38 dc e0       	aesenc %xmm0,%xmm4
  404a84:	66 0f 38 dc e8       	aesenc %xmm0,%xmm5
  404a89:	66 0f 38 dc f0       	aesenc %xmm0,%xmm6
  404a8e:	66 45 0f ef fe       	pxor   %xmm14,%xmm15
  404a93:	45 0f 28 f5          	movaps %xmm13,%xmm14
  404a97:	66 0f 38 dc f8       	aesenc %xmm0,%xmm7
  404a9c:	66 41 0f 6f c1       	movdqa %xmm9,%xmm0
  404aa1:	66 45 0f fe c9       	paddd  %xmm9,%xmm9
  404aa6:	66 0f 38 dc d1       	aesenc %xmm1,%xmm2
  404aab:	66 45 0f ef ef       	pxor   %xmm15,%xmm13
  404ab0:	66 0f 72 e0 1f       	psrad  $0x1f,%xmm0
  404ab5:	66 0f 38 dc d9       	aesenc %xmm1,%xmm3
  404aba:	66 45 0f d4 ff       	paddq  %xmm15,%xmm15
  404abf:	66 41 0f db c0       	pand   %xmm8,%xmm0
  404ac4:	66 0f 38 dc e1       	aesenc %xmm1,%xmm4
  404ac9:	66 0f 38 dc e9       	aesenc %xmm1,%xmm5
  404ace:	66 44 0f ef f8       	pxor   %xmm0,%xmm15
  404ad3:	0f 10 45 00          	movups 0x0(%rbp),%xmm0
  404ad7:	66 0f 38 dc f1       	aesenc %xmm1,%xmm6
  404adc:	66 0f 38 dc f9       	aesenc %xmm1,%xmm7
  404ae1:	0f 10 4d 10          	movups 0x10(%rbp),%xmm1
  404ae5:	66 45 0f ef f7       	pxor   %xmm15,%xmm14
  404aea:	66 0f 38 dd 54 24 00 	aesenclast 0x0(%rsp),%xmm2
  404af1:	66 41 0f 72 e1 1f    	psrad  $0x1f,%xmm9
  404af7:	66 45 0f d4 ff       	paddq  %xmm15,%xmm15
  404afc:	66 0f 38 dd 5c 24 10 	aesenclast 0x10(%rsp),%xmm3
  404b03:	66 0f 38 dd 64 24 20 	aesenclast 0x20(%rsp),%xmm4
  404b0a:	66 45 0f db c8       	pand   %xmm8,%xmm9
  404b0f:	4c 89 d0             	mov    %r10,%rax
  404b12:	66 0f 38 dd 6c 24 30 	aesenclast 0x30(%rsp),%xmm5
  404b19:	66 0f 38 dd 74 24 40 	aesenclast 0x40(%rsp),%xmm6
  404b20:	66 0f 38 dd 7c 24 50 	aesenclast 0x50(%rsp),%xmm7
  404b27:	66 45 0f ef f9       	pxor   %xmm9,%xmm15
  404b2c:	48 8d 76 60          	lea    0x60(%rsi),%rsi
  404b30:	0f 11 56 a0          	movups %xmm2,-0x60(%rsi)
  404b34:	0f 11 5e b0          	movups %xmm3,-0x50(%rsi)
  404b38:	0f 11 66 c0          	movups %xmm4,-0x40(%rsi)
  404b3c:	0f 11 6e d0          	movups %xmm5,-0x30(%rsi)
  404b40:	0f 11 76 e0          	movups %xmm6,-0x20(%rsi)
  404b44:	0f 11 7e f0          	movups %xmm7,-0x10(%rsi)
  404b48:	48 83 ea 60          	sub    $0x60,%rdx
  404b4c:	0f 83 ee fc ff ff    	jae    404840 <aesni_xts_encrypt+0x170>
  404b52:	b8 70 00 00 00       	mov    $0x70,%eax
  404b57:	44 29 d0             	sub    %r10d,%eax
  404b5a:	48 89 e9             	mov    %rbp,%rcx
  404b5d:	c1 e8 04             	shr    $0x4,%eax
  404b60:	41 89 c2             	mov    %eax,%r10d
  404b63:	66 44 0f ef d0       	pxor   %xmm0,%xmm10
  404b68:	48 83 c2 60          	add    $0x60,%rdx
  404b6c:	0f 84 ee 01 00 00    	je     404d60 <aesni_xts_encrypt+0x690>
  404b72:	66 44 0f ef d8       	pxor   %xmm0,%xmm11
  404b77:	48 83 fa 20          	cmp    $0x20,%rdx
  404b7b:	0f 82 9f 00 00 00    	jb     404c20 <aesni_xts_encrypt+0x550>
  404b81:	66 44 0f ef e0       	pxor   %xmm0,%xmm12
  404b86:	0f 84 e4 00 00 00    	je     404c70 <aesni_xts_encrypt+0x5a0>
  404b8c:	66 44 0f ef e8       	pxor   %xmm0,%xmm13
  404b91:	48 83 fa 40          	cmp    $0x40,%rdx
  404b95:	0f 82 15 01 00 00    	jb     404cb0 <aesni_xts_encrypt+0x5e0>
  404b9b:	66 44 0f ef f0       	pxor   %xmm0,%xmm14
  404ba0:	0f 84 5a 01 00 00    	je     404d00 <aesni_xts_encrypt+0x630>
  404ba6:	f3 0f 6f 17          	movdqu (%rdi),%xmm2
  404baa:	f3 0f 6f 5f 10       	movdqu 0x10(%rdi),%xmm3
  404baf:	f3 0f 6f 67 20       	movdqu 0x20(%rdi),%xmm4
  404bb4:	66 41 0f ef d2       	pxor   %xmm10,%xmm2
  404bb9:	f3 0f 6f 6f 30       	movdqu 0x30(%rdi),%xmm5
  404bbe:	66 41 0f ef db       	pxor   %xmm11,%xmm3
  404bc3:	f3 0f 6f 77 40       	movdqu 0x40(%rdi),%xmm6
  404bc8:	48 8d 7f 50          	lea    0x50(%rdi),%rdi
  404bcc:	66 41 0f ef e4       	pxor   %xmm12,%xmm4
  404bd1:	66 41 0f ef ed       	pxor   %xmm13,%xmm5
  404bd6:	66 41 0f ef f6       	pxor   %xmm14,%xmm6
  404bdb:	66 0f ef ff          	pxor   %xmm7,%xmm7
  404bdf:	e8 1c e6 ff ff       	callq  403200 <_aesni_encrypt6>
  404be4:	41 0f 57 d2          	xorps  %xmm10,%xmm2
  404be8:	66 45 0f 6f d7       	movdqa %xmm15,%xmm10
  404bed:	41 0f 57 db          	xorps  %xmm11,%xmm3
  404bf1:	41 0f 57 e4          	xorps  %xmm12,%xmm4
  404bf5:	f3 0f 7f 16          	movdqu %xmm2,(%rsi)
  404bf9:	41 0f 57 ed          	xorps  %xmm13,%xmm5
  404bfd:	f3 0f 7f 5e 10       	movdqu %xmm3,0x10(%rsi)
  404c02:	41 0f 57 f6          	xorps  %xmm14,%xmm6
  404c06:	f3 0f 7f 66 20       	movdqu %xmm4,0x20(%rsi)
  404c0b:	f3 0f 7f 6e 30       	movdqu %xmm5,0x30(%rsi)
  404c10:	f3 0f 7f 76 40       	movdqu %xmm6,0x40(%rsi)
  404c15:	48 8d 76 50          	lea    0x50(%rsi),%rsi
  404c19:	e9 42 01 00 00       	jmpq   404d60 <aesni_xts_encrypt+0x690>
  404c1e:	66 90                	xchg   %ax,%ax
  404c20:	0f 10 17             	movups (%rdi),%xmm2
  404c23:	48 8d 7f 10          	lea    0x10(%rdi),%rdi
  404c27:	41 0f 57 d2          	xorps  %xmm10,%xmm2
  404c2b:	0f 10 01             	movups (%rcx),%xmm0
  404c2e:	0f 10 49 10          	movups 0x10(%rcx),%xmm1
  404c32:	48 8d 49 20          	lea    0x20(%rcx),%rcx
  404c36:	0f 57 d0             	xorps  %xmm0,%xmm2
  404c39:	66 0f 38 dc d1       	aesenc %xmm1,%xmm2
  404c3e:	ff c8                	dec    %eax
  404c40:	0f 10 09             	movups (%rcx),%xmm1
  404c43:	48 8d 49 10          	lea    0x10(%rcx),%rcx
  404c47:	75 f0                	jne    404c39 <aesni_xts_encrypt+0x569>
  404c49:	66 0f 38 dd d1       	aesenclast %xmm1,%xmm2
  404c4e:	41 0f 57 d2          	xorps  %xmm10,%xmm2
  404c52:	66 45 0f 6f d3       	movdqa %xmm11,%xmm10
  404c57:	0f 11 16             	movups %xmm2,(%rsi)
  404c5a:	48 8d 76 10          	lea    0x10(%rsi),%rsi
  404c5e:	e9 fd 00 00 00       	jmpq   404d60 <aesni_xts_encrypt+0x690>
  404c63:	66 66 2e 0f 1f 84 00 	data16 nopw %cs:0x0(%rax,%rax,1)
  404c6a:	00 00 00 00 
  404c6e:	66 90                	xchg   %ax,%ax
  404c70:	0f 10 17             	movups (%rdi),%xmm2
  404c73:	0f 10 5f 10          	movups 0x10(%rdi),%xmm3
  404c77:	48 8d 7f 20          	lea    0x20(%rdi),%rdi
  404c7b:	41 0f 57 d2          	xorps  %xmm10,%xmm2
  404c7f:	41 0f 57 db          	xorps  %xmm11,%xmm3
  404c83:	e8 b8 e2 ff ff       	callq  402f40 <_aesni_encrypt2>
  404c88:	41 0f 57 d2          	xorps  %xmm10,%xmm2
  404c8c:	66 45 0f 6f d4       	movdqa %xmm12,%xmm10
  404c91:	41 0f 57 db          	xorps  %xmm11,%xmm3
  404c95:	0f 11 16             	movups %xmm2,(%rsi)
  404c98:	0f 11 5e 10          	movups %xmm3,0x10(%rsi)
  404c9c:	48 8d 76 20          	lea    0x20(%rsi),%rsi
  404ca0:	e9 bb 00 00 00       	jmpq   404d60 <aesni_xts_encrypt+0x690>
  404ca5:	66 66 2e 0f 1f 84 00 	data16 nopw %cs:0x0(%rax,%rax,1)
  404cac:	00 00 00 00 
  404cb0:	0f 10 17             	movups (%rdi),%xmm2
  404cb3:	0f 10 5f 10          	movups 0x10(%rdi),%xmm3
  404cb7:	0f 10 67 20          	movups 0x20(%rdi),%xmm4
  404cbb:	48 8d 7f 30          	lea    0x30(%rdi),%rdi
  404cbf:	41 0f 57 d2          	xorps  %xmm10,%xmm2
  404cc3:	41 0f 57 db          	xorps  %xmm11,%xmm3
  404cc7:	41 0f 57 e4          	xorps  %xmm12,%xmm4
  404ccb:	e8 30 e3 ff ff       	callq  403000 <_aesni_encrypt3>
  404cd0:	41 0f 57 d2          	xorps  %xmm10,%xmm2
  404cd4:	66 45 0f 6f d5       	movdqa %xmm13,%xmm10
  404cd9:	41 0f 57 db          	xorps  %xmm11,%xmm3
  404cdd:	41 0f 57 e4          	xorps  %xmm12,%xmm4
  404ce1:	0f 11 16             	movups %xmm2,(%rsi)
  404ce4:	0f 11 5e 10          	movups %xmm3,0x10(%rsi)
  404ce8:	0f 11 66 20          	movups %xmm4,0x20(%rsi)
  404cec:	48 8d 76 30          	lea    0x30(%rsi),%rsi
  404cf0:	eb 6e                	jmp    404d60 <aesni_xts_encrypt+0x690>
  404cf2:	66 66 2e 0f 1f 84 00 	data16 nopw %cs:0x0(%rax,%rax,1)
  404cf9:	00 00 00 00 
  404cfd:	0f 1f 00             	nopl   (%rax)
  404d00:	0f 10 17             	movups (%rdi),%xmm2
  404d03:	0f 10 5f 10          	movups 0x10(%rdi),%xmm3
  404d07:	0f 10 67 20          	movups 0x20(%rdi),%xmm4
  404d0b:	41 0f 57 d2          	xorps  %xmm10,%xmm2
  404d0f:	0f 10 6f 30          	movups 0x30(%rdi),%xmm5
  404d13:	48 8d 7f 40          	lea    0x40(%rdi),%rdi
  404d17:	41 0f 57 db          	xorps  %xmm11,%xmm3
  404d1b:	41 0f 57 e4          	xorps  %xmm12,%xmm4
  404d1f:	41 0f 57 ed          	xorps  %xmm13,%xmm5
  404d23:	e8 b8 e3 ff ff       	callq  4030e0 <_aesni_encrypt4>
  404d28:	66 41 0f ef d2       	pxor   %xmm10,%xmm2
  404d2d:	66 45 0f 6f d6       	movdqa %xmm14,%xmm10
  404d32:	66 41 0f ef db       	pxor   %xmm11,%xmm3
  404d37:	66 41 0f ef e4       	pxor   %xmm12,%xmm4
  404d3c:	f3 0f 7f 16          	movdqu %xmm2,(%rsi)
  404d40:	66 41 0f ef ed       	pxor   %xmm13,%xmm5
  404d45:	f3 0f 7f 5e 10       	movdqu %xmm3,0x10(%rsi)
  404d4a:	f3 0f 7f 66 20       	movdqu %xmm4,0x20(%rsi)
  404d4f:	f3 0f 7f 6e 30       	movdqu %xmm5,0x30(%rsi)
  404d54:	48 8d 76 40          	lea    0x40(%rsi),%rsi
  404d58:	eb 06                	jmp    404d60 <aesni_xts_encrypt+0x690>
  404d5a:	66 0f 1f 44 00 00    	nopw   0x0(%rax,%rax,1)
  404d60:	49 83 e1 0f          	and    $0xf,%r9
  404d64:	74 59                	je     404dbf <aesni_xts_encrypt+0x6ef>
  404d66:	4c 89 ca             	mov    %r9,%rdx
  404d69:	0f b6 07             	movzbl (%rdi),%eax
  404d6c:	0f b6 4e f0          	movzbl -0x10(%rsi),%ecx
  404d70:	48 8d 7f 01          	lea    0x1(%rdi),%rdi
  404d74:	88 46 f0             	mov    %al,-0x10(%rsi)
  404d77:	88 0e                	mov    %cl,(%rsi)
  404d79:	48 8d 76 01          	lea    0x1(%rsi),%rsi
  404d7d:	48 83 ea 01          	sub    $0x1,%rdx
  404d81:	75 e6                	jne    404d69 <aesni_xts_encrypt+0x699>
  404d83:	4c 29 ce             	sub    %r9,%rsi
  404d86:	48 89 e9             	mov    %rbp,%rcx
  404d89:	44 89 d0             	mov    %r10d,%eax
  404d8c:	0f 10 56 f0          	movups -0x10(%rsi),%xmm2
  404d90:	41 0f 57 d2          	xorps  %xmm10,%xmm2
  404d94:	0f 10 01             	movups (%rcx),%xmm0
  404d97:	0f 10 49 10          	movups 0x10(%rcx),%xmm1
  404d9b:	48 8d 49 20          	lea    0x20(%rcx),%rcx
  404d9f:	0f 57 d0             	xorps  %xmm0,%xmm2
  404da2:	66 0f 38 dc d1       	aesenc %xmm1,%xmm2
  404da7:	ff c8                	dec    %eax
  404da9:	0f 10 09             	movups (%rcx),%xmm1
  404dac:	48 8d 49 10          	lea    0x10(%rcx),%rcx
  404db0:	75 f0                	jne    404da2 <aesni_xts_encrypt+0x6d2>
  404db2:	66 0f 38 dd d1       	aesenclast %xmm1,%xmm2
  404db7:	41 0f 57 d2          	xorps  %xmm10,%xmm2
  404dbb:	0f 11 56 f0          	movups %xmm2,-0x10(%rsi)
  404dbf:	0f 57 c0             	xorps  %xmm0,%xmm0
  404dc2:	66 0f ef c9          	pxor   %xmm1,%xmm1
  404dc6:	66 0f ef d2          	pxor   %xmm2,%xmm2
  404dca:	66 0f ef db          	pxor   %xmm3,%xmm3
  404dce:	66 0f ef e4          	pxor   %xmm4,%xmm4
  404dd2:	66 0f ef ed          	pxor   %xmm5,%xmm5
  404dd6:	66 0f ef f6          	pxor   %xmm6,%xmm6
  404dda:	66 0f ef ff          	pxor   %xmm7,%xmm7
  404dde:	0f 29 04 24          	movaps %xmm0,(%rsp)
  404de2:	66 45 0f ef c0       	pxor   %xmm8,%xmm8
  404de7:	0f 29 44 24 10       	movaps %xmm0,0x10(%rsp)
  404dec:	66 45 0f ef c9       	pxor   %xmm9,%xmm9
  404df1:	0f 29 44 24 20       	movaps %xmm0,0x20(%rsp)
  404df6:	66 45 0f ef d2       	pxor   %xmm10,%xmm10
  404dfb:	0f 29 44 24 30       	movaps %xmm0,0x30(%rsp)
  404e00:	66 45 0f ef db       	pxor   %xmm11,%xmm11
  404e05:	0f 29 44 24 40       	movaps %xmm0,0x40(%rsp)
  404e0a:	66 45 0f ef e4       	pxor   %xmm12,%xmm12
  404e0f:	0f 29 44 24 50       	movaps %xmm0,0x50(%rsp)
  404e14:	66 45 0f ef ed       	pxor   %xmm13,%xmm13
  404e19:	0f 29 44 24 60       	movaps %xmm0,0x60(%rsp)
  404e1e:	66 45 0f ef f6       	pxor   %xmm14,%xmm14
  404e23:	66 45 0f ef ff       	pxor   %xmm15,%xmm15
  404e28:	49 8b 6b f8          	mov    -0x8(%r11),%rbp
  404e2c:	49 8d 23             	lea    (%r11),%rsp
  404e2f:	f3 c3                	repz retq 
  404e31:	66 66 2e 0f 1f 84 00 	data16 nopw %cs:0x0(%rax,%rax,1)
  404e38:	00 00 00 00 
  404e3c:	0f 1f 40 00          	nopl   0x0(%rax)

0000000000404e40 <aesni_xts_decrypt>:
  404e40:	4c 8d 1c 24          	lea    (%rsp),%r11
  404e44:	55                   	push   %rbp
  404e45:	48 83 ec 70          	sub    $0x70,%rsp
  404e49:	48 83 e4 f0          	and    $0xfffffffffffffff0,%rsp
  404e4d:	41 0f 10 11          	movups (%r9),%xmm2
  404e51:	41 8b 80 f0 00 00 00 	mov    0xf0(%r8),%eax
  404e58:	44 8b 91 f0 00 00 00 	mov    0xf0(%rcx),%r10d
  404e5f:	41 0f 10 00          	movups (%r8),%xmm0
  404e63:	41 0f 10 48 10       	movups 0x10(%r8),%xmm1
  404e68:	4d 8d 40 20          	lea    0x20(%r8),%r8
  404e6c:	0f 57 d0             	xorps  %xmm0,%xmm2
  404e6f:	66 0f 38 dc d1       	aesenc %xmm1,%xmm2
  404e74:	ff c8                	dec    %eax
  404e76:	41 0f 10 08          	movups (%r8),%xmm1
  404e7a:	4d 8d 40 10          	lea    0x10(%r8),%r8
  404e7e:	75 ef                	jne    404e6f <aesni_xts_decrypt+0x2f>
  404e80:	66 0f 38 dd d1       	aesenclast %xmm1,%xmm2
  404e85:	31 c0                	xor    %eax,%eax
  404e87:	48 f7 c2 0f 00 00 00 	test   $0xf,%rdx
  404e8e:	0f 95 c0             	setne  %al
  404e91:	48 c1 e0 04          	shl    $0x4,%rax
  404e95:	48 29 c2             	sub    %rax,%rdx
  404e98:	0f 10 01             	movups (%rcx),%xmm0
  404e9b:	48 89 cd             	mov    %rcx,%rbp
  404e9e:	44 89 d0             	mov    %r10d,%eax
  404ea1:	41 c1 e2 04          	shl    $0x4,%r10d
  404ea5:	49 89 d1             	mov    %rdx,%r9
  404ea8:	48 83 e2 f0          	and    $0xfffffffffffffff0,%rdx
  404eac:	42 0f 10 4c 11 10    	movups 0x10(%rcx,%r10,1),%xmm1
  404eb2:	66 44 0f 6f 05 f5 22 	movdqa 0x22f5(%rip),%xmm8        # 4071b0 <aesni_set_encrypt_key+0x590>
  404eb9:	00 00 
  404ebb:	66 44 0f 6f fa       	movdqa %xmm2,%xmm15
  404ec0:	66 44 0f 70 ca 5f    	pshufd $0x5f,%xmm2,%xmm9
  404ec6:	66 0f ef c8          	pxor   %xmm0,%xmm1
  404eca:	66 45 0f 6f f1       	movdqa %xmm9,%xmm14
  404ecf:	66 45 0f fe c9       	paddd  %xmm9,%xmm9
  404ed4:	66 45 0f 6f d7       	movdqa %xmm15,%xmm10
  404ed9:	66 41 0f 72 e6 1f    	psrad  $0x1f,%xmm14
  404edf:	66 45 0f d4 ff       	paddq  %xmm15,%xmm15
  404ee4:	66 45 0f db f0       	pand   %xmm8,%xmm14
  404ee9:	66 44 0f ef d0       	pxor   %xmm0,%xmm10
  404eee:	66 45 0f ef fe       	pxor   %xmm14,%xmm15
  404ef3:	66 45 0f 6f f1       	movdqa %xmm9,%xmm14
  404ef8:	66 45 0f fe c9       	paddd  %xmm9,%xmm9
  404efd:	66 45 0f 6f df       	movdqa %xmm15,%xmm11
  404f02:	66 41 0f 72 e6 1f    	psrad  $0x1f,%xmm14
  404f08:	66 45 0f d4 ff       	paddq  %xmm15,%xmm15
  404f0d:	66 45 0f db f0       	pand   %xmm8,%xmm14
  404f12:	66 44 0f ef d8       	pxor   %xmm0,%xmm11
  404f17:	66 45 0f ef fe       	pxor   %xmm14,%xmm15
  404f1c:	66 45 0f 6f f1       	movdqa %xmm9,%xmm14
  404f21:	66 45 0f fe c9       	paddd  %xmm9,%xmm9
  404f26:	66 45 0f 6f e7       	movdqa %xmm15,%xmm12
  404f2b:	66 41 0f 72 e6 1f    	psrad  $0x1f,%xmm14
  404f31:	66 45 0f d4 ff       	paddq  %xmm15,%xmm15
  404f36:	66 45 0f db f0       	pand   %xmm8,%xmm14
  404f3b:	66 44 0f ef e0       	pxor   %xmm0,%xmm12
  404f40:	66 45 0f ef fe       	pxor   %xmm14,%xmm15
  404f45:	66 45 0f 6f f1       	movdqa %xmm9,%xmm14
  404f4a:	66 45 0f fe c9       	paddd  %xmm9,%xmm9
  404f4f:	66 45 0f 6f ef       	movdqa %xmm15,%xmm13
  404f54:	66 41 0f 72 e6 1f    	psrad  $0x1f,%xmm14
  404f5a:	66 45 0f d4 ff       	paddq  %xmm15,%xmm15
  404f5f:	66 45 0f db f0       	pand   %xmm8,%xmm14
  404f64:	66 44 0f ef e8       	pxor   %xmm0,%xmm13
  404f69:	66 45 0f ef fe       	pxor   %xmm14,%xmm15
  404f6e:	66 45 0f 6f f7       	movdqa %xmm15,%xmm14
  404f73:	66 41 0f 72 e1 1f    	psrad  $0x1f,%xmm9
  404f79:	66 45 0f d4 ff       	paddq  %xmm15,%xmm15
  404f7e:	66 45 0f db c8       	pand   %xmm8,%xmm9
  404f83:	66 44 0f ef f0       	pxor   %xmm0,%xmm14
  404f88:	66 45 0f ef f9       	pxor   %xmm9,%xmm15
  404f8d:	0f 29 4c 24 60       	movaps %xmm1,0x60(%rsp)
  404f92:	48 83 ea 60          	sub    $0x60,%rdx
  404f96:	0f 82 44 03 00 00    	jb     4052e0 <aesni_xts_decrypt+0x4a0>
  404f9c:	b8 70 00 00 00       	mov    $0x70,%eax
  404fa1:	4a 8d 4c 15 20       	lea    0x20(%rbp,%r10,1),%rcx
  404fa6:	4c 29 d0             	sub    %r10,%rax
  404fa9:	0f 10 4d 10          	movups 0x10(%rbp),%xmm1
  404fad:	49 89 c2             	mov    %rax,%r10
  404fb0:	4c 8d 05 f9 21 00 00 	lea    0x21f9(%rip),%r8        # 4071b0 <aesni_set_encrypt_key+0x590>
  404fb7:	eb 07                	jmp    404fc0 <aesni_xts_decrypt+0x180>
  404fb9:	0f 1f 80 00 00 00 00 	nopl   0x0(%rax)
  404fc0:	f3 0f 6f 17          	movdqu (%rdi),%xmm2
  404fc4:	66 44 0f 6f c0       	movdqa %xmm0,%xmm8
  404fc9:	f3 0f 6f 5f 10       	movdqu 0x10(%rdi),%xmm3
  404fce:	66 41 0f ef d2       	pxor   %xmm10,%xmm2
  404fd3:	f3 0f 6f 67 20       	movdqu 0x20(%rdi),%xmm4
  404fd8:	66 41 0f ef db       	pxor   %xmm11,%xmm3
  404fdd:	66 0f 38 de d1       	aesdec %xmm1,%xmm2
  404fe2:	f3 0f 6f 6f 30       	movdqu 0x30(%rdi),%xmm5
  404fe7:	66 41 0f ef e4       	pxor   %xmm12,%xmm4
  404fec:	66 0f 38 de d9       	aesdec %xmm1,%xmm3
  404ff1:	f3 0f 6f 77 40       	movdqu 0x40(%rdi),%xmm6
  404ff6:	66 41 0f ef ed       	pxor   %xmm13,%xmm5
  404ffb:	66 0f 38 de e1       	aesdec %xmm1,%xmm4
  405000:	f3 0f 6f 7f 50       	movdqu 0x50(%rdi),%xmm7
  405005:	66 45 0f ef c7       	pxor   %xmm15,%xmm8
  40500a:	66 44 0f 6f 4c 24 60 	movdqa 0x60(%rsp),%xmm9
  405011:	66 41 0f ef f6       	pxor   %xmm14,%xmm6
  405016:	66 0f 38 de e9       	aesdec %xmm1,%xmm5
  40501b:	0f 10 45 20          	movups 0x20(%rbp),%xmm0
  40501f:	48 8d 7f 60          	lea    0x60(%rdi),%rdi
  405023:	66 41 0f ef f8       	pxor   %xmm8,%xmm7
  405028:	66 45 0f ef d1       	pxor   %xmm9,%xmm10
  40502d:	66 0f 38 de f1       	aesdec %xmm1,%xmm6
  405032:	66 45 0f ef d9       	pxor   %xmm9,%xmm11
  405037:	66 44 0f 7f 14 24    	movdqa %xmm10,(%rsp)
  40503d:	66 0f 38 de f9       	aesdec %xmm1,%xmm7
  405042:	0f 10 4d 30          	movups 0x30(%rbp),%xmm1
  405046:	66 45 0f ef e1       	pxor   %xmm9,%xmm12
  40504b:	66 0f 38 de d0       	aesdec %xmm0,%xmm2
  405050:	66 45 0f ef e9       	pxor   %xmm9,%xmm13
  405055:	66 44 0f 7f 5c 24 10 	movdqa %xmm11,0x10(%rsp)
  40505c:	66 0f 38 de d8       	aesdec %xmm0,%xmm3
  405061:	66 45 0f ef f1       	pxor   %xmm9,%xmm14
  405066:	66 44 0f 7f 64 24 20 	movdqa %xmm12,0x20(%rsp)
  40506d:	66 0f 38 de e0       	aesdec %xmm0,%xmm4
  405072:	66 0f 38 de e8       	aesdec %xmm0,%xmm5
  405077:	66 45 0f ef c1       	pxor   %xmm9,%xmm8
  40507c:	66 44 0f 7f 74 24 40 	movdqa %xmm14,0x40(%rsp)
  405083:	66 0f 38 de f0       	aesdec %xmm0,%xmm6
  405088:	66 0f 38 de f8       	aesdec %xmm0,%xmm7
  40508d:	0f 10 45 40          	movups 0x40(%rbp),%xmm0
  405091:	66 44 0f 7f 44 24 50 	movdqa %xmm8,0x50(%rsp)
  405098:	66 45 0f 70 cf 5f    	pshufd $0x5f,%xmm15,%xmm9
  40509e:	eb 00                	jmp    4050a0 <aesni_xts_decrypt+0x260>
  4050a0:	66 0f 38 de d1       	aesdec %xmm1,%xmm2
  4050a5:	66 0f 38 de d9       	aesdec %xmm1,%xmm3
  4050aa:	66 0f 38 de e1       	aesdec %xmm1,%xmm4
  4050af:	66 0f 38 de e9       	aesdec %xmm1,%xmm5
  4050b4:	66 0f 38 de f1       	aesdec %xmm1,%xmm6
  4050b9:	66 0f 38 de f9       	aesdec %xmm1,%xmm7
  4050be:	0f 10 4c 01 c0       	movups -0x40(%rcx,%rax,1),%xmm1
  4050c3:	48 83 c0 20          	add    $0x20,%rax
  4050c7:	66 0f 38 de d0       	aesdec %xmm0,%xmm2
  4050cc:	66 0f 38 de d8       	aesdec %xmm0,%xmm3
  4050d1:	66 0f 38 de e0       	aesdec %xmm0,%xmm4
  4050d6:	66 0f 38 de e8       	aesdec %xmm0,%xmm5
  4050db:	66 0f 38 de f0       	aesdec %xmm0,%xmm6
  4050e0:	66 0f 38 de f8       	aesdec %xmm0,%xmm7
  4050e5:	0f 10 44 01 b0       	movups -0x50(%rcx,%rax,1),%xmm0
  4050ea:	75 b4                	jne    4050a0 <aesni_xts_decrypt+0x260>
  4050ec:	66 45 0f 6f 00       	movdqa (%r8),%xmm8
  4050f1:	66 45 0f 6f f1       	movdqa %xmm9,%xmm14
  4050f6:	66 45 0f fe c9       	paddd  %xmm9,%xmm9
  4050fb:	66 0f 38 de d1       	aesdec %xmm1,%xmm2
  405100:	66 45 0f d4 ff       	paddq  %xmm15,%xmm15
  405105:	66 41 0f 72 e6 1f    	psrad  $0x1f,%xmm14
  40510b:	66 0f 38 de d9       	aesdec %xmm1,%xmm3
  405110:	66 45 0f db f0       	pand   %xmm8,%xmm14
  405115:	44 0f 10 55 00       	movups 0x0(%rbp),%xmm10
  40511a:	66 0f 38 de e1       	aesdec %xmm1,%xmm4
  40511f:	66 0f 38 de e9       	aesdec %xmm1,%xmm5
  405124:	66 0f 38 de f1       	aesdec %xmm1,%xmm6
  405129:	66 45 0f ef fe       	pxor   %xmm14,%xmm15
  40512e:	45 0f 28 da          	movaps %xmm10,%xmm11
  405132:	66 0f 38 de f9       	aesdec %xmm1,%xmm7
  405137:	0f 10 49 c0          	movups -0x40(%rcx),%xmm1
  40513b:	66 45 0f 6f f1       	movdqa %xmm9,%xmm14
  405140:	66 0f 38 de d0       	aesdec %xmm0,%xmm2
  405145:	66 45 0f fe c9       	paddd  %xmm9,%xmm9
  40514a:	66 45 0f ef d7       	pxor   %xmm15,%xmm10
  40514f:	66 0f 38 de d8       	aesdec %xmm0,%xmm3
  405154:	66 41 0f 72 e6 1f    	psrad  $0x1f,%xmm14
  40515a:	66 45 0f d4 ff       	paddq  %xmm15,%xmm15
  40515f:	66 0f 38 de e0       	aesdec %xmm0,%xmm4
  405164:	66 0f 38 de e8       	aesdec %xmm0,%xmm5
  405169:	66 45 0f db f0       	pand   %xmm8,%xmm14
  40516e:	45 0f 28 e3          	movaps %xmm11,%xmm12
  405172:	66 0f 38 de f0       	aesdec %xmm0,%xmm6
  405177:	66 45 0f ef fe       	pxor   %xmm14,%xmm15
  40517c:	66 45 0f 6f f1       	movdqa %xmm9,%xmm14
  405181:	66 0f 38 de f8       	aesdec %xmm0,%xmm7
  405186:	0f 10 41 d0          	movups -0x30(%rcx),%xmm0
  40518a:	66 45 0f fe c9       	paddd  %xmm9,%xmm9
  40518f:	66 0f 38 de d1       	aesdec %xmm1,%xmm2
  405194:	66 45 0f ef df       	pxor   %xmm15,%xmm11
  405199:	66 41 0f 72 e6 1f    	psrad  $0x1f,%xmm14
  40519f:	66 0f 38 de d9       	aesdec %xmm1,%xmm3
  4051a4:	66 45 0f d4 ff       	paddq  %xmm15,%xmm15
  4051a9:	66 45 0f db f0       	pand   %xmm8,%xmm14
  4051ae:	66 0f 38 de e1       	aesdec %xmm1,%xmm4
  4051b3:	66 0f 38 de e9       	aesdec %xmm1,%xmm5
  4051b8:	66 44 0f 7f 6c 24 30 	movdqa %xmm13,0x30(%rsp)
  4051bf:	66 45 0f ef fe       	pxor   %xmm14,%xmm15
  4051c4:	66 0f 38 de f1       	aesdec %xmm1,%xmm6
  4051c9:	45 0f 28 ec          	movaps %xmm12,%xmm13
  4051cd:	66 45 0f 6f f1       	movdqa %xmm9,%xmm14
  4051d2:	66 0f 38 de f9       	aesdec %xmm1,%xmm7
  4051d7:	0f 10 49 e0          	movups -0x20(%rcx),%xmm1
  4051db:	66 45 0f fe c9       	paddd  %xmm9,%xmm9
  4051e0:	66 0f 38 de d0       	aesdec %xmm0,%xmm2
  4051e5:	66 45 0f ef e7       	pxor   %xmm15,%xmm12
  4051ea:	66 41 0f 72 e6 1f    	psrad  $0x1f,%xmm14
  4051f0:	66 0f 38 de d8       	aesdec %xmm0,%xmm3
  4051f5:	66 45 0f d4 ff       	paddq  %xmm15,%xmm15
  4051fa:	66 45 0f db f0       	pand   %xmm8,%xmm14
  4051ff:	66 0f 38 de e0       	aesdec %xmm0,%xmm4
  405204:	66 0f 38 de e8       	aesdec %xmm0,%xmm5
  405209:	66 0f 38 de f0       	aesdec %xmm0,%xmm6
  40520e:	66 45 0f ef fe       	pxor   %xmm14,%xmm15
  405213:	45 0f 28 f5          	movaps %xmm13,%xmm14
  405217:	66 0f 38 de f8       	aesdec %xmm0,%xmm7
  40521c:	66 41 0f 6f c1       	movdqa %xmm9,%xmm0
  405221:	66 45 0f fe c9       	paddd  %xmm9,%xmm9
  405226:	66 0f 38 de d1       	aesdec %xmm1,%xmm2
  40522b:	66 45 0f ef ef       	pxor   %xmm15,%xmm13
  405230:	66 0f 72 e0 1f       	psrad  $0x1f,%xmm0
  405235:	66 0f 38 de d9       	aesdec %xmm1,%xmm3
  40523a:	66 45 0f d4 ff       	paddq  %xmm15,%xmm15
  40523f:	66 41 0f db c0       	pand   %xmm8,%xmm0
  405244:	66 0f 38 de e1       	aesdec %xmm1,%xmm4
  405249:	66 0f 38 de e9       	aesdec %xmm1,%xmm5
  40524e:	66 44 0f ef f8       	pxor   %xmm0,%xmm15
  405253:	0f 10 45 00          	movups 0x0(%rbp),%xmm0
  405257:	66 0f 38 de f1       	aesdec %xmm1,%xmm6
  40525c:	66 0f 38 de f9       	aesdec %xmm1,%xmm7
  405261:	0f 10 4d 10          	movups 0x10(%rbp),%xmm1
  405265:	66 45 0f ef f7       	pxor   %xmm15,%xmm14
  40526a:	66 0f 38 df 54 24 00 	aesdeclast 0x0(%rsp),%xmm2
  405271:	66 41 0f 72 e1 1f    	psrad  $0x1f,%xmm9
  405277:	66 45 0f d4 ff       	paddq  %xmm15,%xmm15
  40527c:	66 0f 38 df 5c 24 10 	aesdeclast 0x10(%rsp),%xmm3
  405283:	66 0f 38 df 64 24 20 	aesdeclast 0x20(%rsp),%xmm4
