
lfence.o:     file format elf64-x86-64


Disassembly of section .text:

0000000000000000 <encrypt>:
   0:	55                   	push   %rbp
   1:	48 89 e5             	mov    %rsp,%rbp
   4:	48 83 ec 40          	sub    $0x40,%rsp
   8:	31 c0                	xor    %eax,%eax
   a:	48 c7 45 f8 00 00 00 	movq   $0x0,-0x8(%rbp)
  11:	00 
  12:	c6 45 f7 01          	movb   $0x1,-0x9(%rbp)
  16:	48 c7 45 e8 00 00 00 	movq   $0x0,-0x18(%rbp)
  1d:	00 
  1e:	48 8b 0f             	mov    (%rdi),%rcx
  21:	48 89 4d e0          	mov    %rcx,-0x20(%rbp)
  25:	48 89 7d d8          	mov    %rdi,-0x28(%rbp)
  29:	48 89 75 d0          	mov    %rsi,-0x30(%rbp)
  2d:	89 45 cc             	mov    %eax,-0x34(%rbp)
  30:	8b 45 cc             	mov    -0x34(%rbp),%eax
  33:	83 f8 1f             	cmp    $0x1f,%eax
  36:	89 45 c8             	mov    %eax,-0x38(%rbp)
  39:	73 6f                	jae    aa <encrypt+0xaa>
  3b:	8b 45 c8             	mov    -0x38(%rbp),%eax
  3e:	83 f8 00             	cmp    $0x0,%eax
  41:	0f 93 c1             	setae  %cl
  44:	83 f8 20             	cmp    $0x20,%eax
  47:	0f 92 c2             	setb   %dl
  4a:	20 d1                	and    %dl,%cl
  4c:	f6 c1 01             	test   $0x1,%cl
  4f:	be 01 00 00 00       	mov    $0x1,%esi
  54:	48 0f 45 75 e8       	cmovne -0x18(%rbp),%rsi
  59:	48 89 75 e8          	mov    %rsi,-0x18(%rbp)
  5d:	48 8b 75 e0          	mov    -0x20(%rbp),%rsi
  61:	48 8b 7d d0          	mov    -0x30(%rbp),%rdi
  65:	41 89 f8             	mov    %edi,%r8d
  68:	41 b9 1f 00 00 00    	mov    $0x1f,%r9d
  6e:	41 29 c1             	sub    %eax,%r9d
  71:	44 89 c9             	mov    %r9d,%ecx
  74:	41 b9 01 00 00 00    	mov    $0x1,%r9d
  7a:	41 d3 e1             	shl    %cl,%r9d
  7d:	45 21 c8             	and    %r9d,%r8d
  80:	45 89 c0             	mov    %r8d,%r8d
  83:	45 89 c2             	mov    %r8d,%r10d
  86:	4c 31 d6             	xor    %r10,%rsi
  89:	48 89 75 e0          	mov    %rsi,-0x20(%rbp)
  8d:	41 89 c0             	mov    %eax,%r8d
  90:	44 89 c6             	mov    %r8d,%esi
  93:	4c 8b 55 e0          	mov    -0x20(%rbp),%r10
  97:	4c 8b 5d d8          	mov    -0x28(%rbp),%r11
  9b:	4d 89 14 f3          	mov    %r10,(%r11,%rsi,8)
  9f:	8b 45 c8             	mov    -0x38(%rbp),%eax
  a2:	83 c0 01             	add    $0x1,%eax
  a5:	89 45 cc             	mov    %eax,-0x34(%rbp)
  a8:	eb 86                	jmp    30 <encrypt+0x30>
  aa:	48 89 e0             	mov    %rsp,%rax
  ad:	48 83 c0 f0          	add    $0xfffffffffffffff0,%rax
  b1:	48 89 c4             	mov    %rax,%rsp
  b4:	48 c7 00 00 00 00 00 	movq   $0x0,(%rax)
  bb:	b1 01                	mov    $0x1,%cl
  bd:	f6 c1 01             	test   $0x1,%cl
  c0:	48 89 45 c0          	mov    %rax,-0x40(%rbp)
  c4:	75 02                	jne    c8 <encrypt+0xc8>
  c6:	eb 0d                	jmp    d5 <encrypt+0xd5>
  c8:	48 8b 45 c0          	mov    -0x40(%rbp),%rax
  cc:	48 c7 00 1f 00 00 00 	movq   $0x1f,(%rax)
  d3:	eb 0b                	jmp    e0 <encrypt+0xe0>
  d5:	48 8b 45 c0          	mov    -0x40(%rbp),%rax
  d9:	48 c7 00 2d 00 00 00 	movq   $0x2d,(%rax)
  e0:	0f ae e8             	lfence 
  e3:	48 8b 45 e0          	mov    -0x20(%rbp),%rax
  e7:	48 8b 4d c0          	mov    -0x40(%rbp),%rcx
  eb:	48 03 01             	add    (%rcx),%rax
  ee:	48 89 ec             	mov    %rbp,%rsp
  f1:	5d                   	pop    %rbp
  f2:	c3                   	retq   
